GAS LISTING C:\Users\UTILIS~1\AppData\Local\Temp\ccGo1KKu.s 			page 1


   1              		.file	"carcommand.c"
   2              		.section	".text","axv"
   3              	.Ltext0:
   4              		.cfi_sections	.debug_frame
   5              		.section	.text.turncmd,"axv",@progbits
   6              		.align 1
   7              		.p2align 4,,15
   8              		.globl turncmd
   9              		.type	turncmd, @function
  10              	turncmd:
  11              	.LFB46:
  12              		.file 1 "./source/carcommand.c"
  13              		.loc 1 30 0
  14              		.cfi_startproc
  15              	.LVL0:
  16 0000 182106F0 		e_stwu %r1,-16(%r1)
  17              	.LCFI0:
  18              		.cfi_def_cfa_offset 16
  19 0004 0080     		se_mflr %r0
  20 0006 D3F1     		se_stw %r31,12(%r1)
  21 0008 D501     		se_stw %r0,20(%r1)
  22              		.cfi_offset 65, 4
  23              		.cfi_offset 31, -4
  24              		.loc 1 30 0
  25 000a 013F     		se_mr %r31,%r3
  26              		.loc 1 32 0
  27 000c 7138E3F9 		e_lis %r9,0xc3f9
  28              		.loc 1 31 0
  29 0010 1823A801 		e_cmpi %cr1,%r3,1
  30 0014 7A1600A8 		e_beq %cr1,.L11
  31              		.loc 1 52 0
  32 0018 1823A802 		e_cmpi %cr1,%r3,2
  33 001c 7A160036 		e_beq %cr1,.L12
  34              		.loc 1 78 0
  35 0020 71400000 		e_li %r10,0
  36              		.loc 1 83 0
  37 0024 7060E000 		e_lis %r3,PWMD1@ha
  38              	.LVL1:
  39              		.loc 1 78 0
  40 0028 3549061D 		e_stb %r10,1565(%r9)
  41              		.loc 1 83 0
  42 002c 1C630000 		e_la %r3,PWMD1@l(%r3)
  43              		.loc 1 79 0
  44 0030 3549061E 		e_stb %r10,1566(%r9)
  45              		.loc 1 83 0
  46 0034 4814     		se_li %r4,1
  47 0036 4805     		se_li %r5,0
  48 0038 78000001 		e_bl pwmEnableChannel
  49              	.LVL2:
  50              		.loc 1 85 0
  51 003c 71400000 		e_li %r10,0
  52 0040 7120E000 		e_lis %r9,iCarBlinker@ha
  53 0044 55490000 		e_stw %r10,iCarBlinker@l(%r9)
  54              	.L1:
  55              		.loc 1 87 0
  56 0048 C501     		se_lwz %r0,20(%r1)
  57 004a 0090     		se_mtlr %r0
GAS LISTING C:\Users\UTILIS~1\AppData\Local\Temp\ccGo1KKu.s 			page 2


  58              		.cfi_remember_state
  59              		.cfi_restore 65
  60 004c C3F1     		se_lwz %r31,12(%r1)
  61              	.LVL3:
  62 004e 20F1     		se_addi %r1,16
  63              	.LCFI1:
  64              		.cfi_restore 31
  65              		.cfi_def_cfa_offset 0
  66 0050 0004     		se_blr
  67              	.LVL4:
  68              	.L12:
  69              	.LCFI2:
  70              		.cfi_restore_state
  71              		.loc 1 53 0
  72 0052 71400001 		e_li %r10,1
  73 0056 3549061D 		e_stb %r10,1565(%r9)
  74              		.loc 1 54 0
  75 005a 71400000 		e_li %r10,0
  76 005e 3549061E 		e_stb %r10,1566(%r9)
  77              	.L9:
  78              		.loc 1 59 0
  79 0062 4814     		se_li %r4,1
  80 0064 7060E000 		e_lis %r3,PWMD1@ha
  81              	.LVL5:
  82 0068 713AE1B7 		e_lis %r9,0xd1b7
  83 006c 1C630000 		e_la %r3,PWMD1@l(%r3)
  84 0070 7122C759 		e_or2i %r9,5977
  85 0074 C253     		se_lwz %r5,8(%r3)
  86 0076 7085A710 		e_mull2i %r5,10000
  87 007a 7CA54816 		mulhwu %r5,%r5,%r9
  88 007e 68D5     		se_srwi %r5,13
  89 0080 78000001 		e_bl pwmEnableChannel
  90              	.LVL6:
  91              		.loc 1 61 0
  92 0084 7140E000 		e_lis %r10,iCarBlinker@ha
  93 0088 512A0000 		e_lwz %r9,iCarBlinker@l(%r10)
  94              		.loc 1 62 0
  95 008c 57EA0000 		e_stw %r31,iCarBlinker@l(%r10)
  96              		.loc 1 61 0
  97 0090 1829A800 		e_cmpi %cr1,%r9,0
  98 0094 7A06FFB4 		e_bne %cr1,.L1
  99              		.loc 1 87 0
 100 0098 C501     		se_lwz %r0,20(%r1)
 101 009a C3F1     		se_lwz %r31,12(%r1)
 102              	.LVL7:
 103              		.loc 1 67 0
 104 009c 7060E000 		e_lis %r3,waThreadCarBlinker@ha
 105 00a0 70C0E000 		e_lis %r6,ThreadCarBlinker@ha
 106              		.loc 1 87 0
 107              		.loc 1 67 0
 108 00a4 1C630000 		e_la %r3,waThreadCarBlinker@l(%r3)
 109 00a8 70800268 		e_li %r4,616
 110 00ac 4C05     		se_li %r5,64
 111 00ae 1CC60000 		e_la %r6,ThreadCarBlinker@l(%r6)
 112 00b2 4807     		se_li %r7,0
 113              		.loc 1 87 0
 114 00b4 0090     		se_mtlr %r0
GAS LISTING C:\Users\UTILIS~1\AppData\Local\Temp\ccGo1KKu.s 			page 3


 115              		.cfi_remember_state
 116              		.cfi_restore 65
 117 00b6 20F1     		se_addi %r1,16
 118              	.LCFI3:
 119              		.cfi_restore 31
 120              		.cfi_def_cfa_offset 0
 121              		.loc 1 67 0
 122 00b8 78000000 		e_b chThdCreateStatic
 123              	.LVL8:
 124              	.L11:
 125              	.LCFI4:
 126              		.cfi_restore_state
 127              		.loc 1 32 0
 128 00bc 71400000 		e_li %r10,0
 129 00c0 3549061D 		e_stb %r10,1565(%r9)
 130              		.loc 1 33 0
 131 00c4 3469061E 		e_stb %r3,1566(%r9)
 132 00c8 79FFFF9A 		e_b .L9
 133              		.cfi_endproc
 134              	.LFE46:
 135              		.size	turncmd, .-turncmd
 136              		.section	.text.drivecmd,"axv",@progbits
 137              		.align 1
 138              		.p2align 4,,15
 139              		.globl drivecmd
 140              		.type	drivecmd, @function
 141              	drivecmd:
 142              	.LFB47:
 143              		.loc 1 89 0
 144              		.cfi_startproc
 145              	.LVL9:
 146              		.loc 1 91 0
 147 0000 7138E3F9 		e_lis %r9,0xc3f9
 148              		.loc 1 90 0
 149 0004 1823A801 		e_cmpi %cr1,%r3,1
 150 0008 7A16003C 		e_beq %cr1,.L17
 151              		.loc 1 94 0
 152 000c 1823A802 		e_cmpi %cr1,%r3,2
 153 0010 7A160064 		e_beq %cr1,.L18
 154              		.loc 1 100 0
 155 0014 71400000 		e_li %r10,0
 156              		.loc 1 106 0
 157 0018 7060E000 		e_lis %r3,PWMD1@ha
 158              	.LVL10:
 159              		.loc 1 100 0
 160 001c 3549061C 		e_stb %r10,1564(%r9)
 161              		.loc 1 106 0
 162 0020 1C630000 		e_la %r3,PWMD1@l(%r3)
 163              		.loc 1 101 0
 164 0024 3549061A 		e_stb %r10,1562(%r9)
 165              		.loc 1 106 0
 166 0028 51230008 		e_lwz %r9,8(%r3)
 167              		.loc 1 107 0
 168              		.loc 1 106 0
 169 002c 7CA449D6 		mullw %r5,%r4,%r9
 170 0030 713AE1B7 		e_lis %r9,0xd1b7
 171 0034 4804     		se_li %r4,0
GAS LISTING C:\Users\UTILIS~1\AppData\Local\Temp\ccGo1KKu.s 			page 4


 172              	.LVL11:
 173 0036 7122C759 		e_or2i %r9,5977
 174 003a 7CA54816 		mulhwu %r5,%r5,%r9
 175 003e 68D5     		se_srwi %r5,13
 176 0040 78000000 		e_b pwmEnableChannel
 177              	.LVL12:
 178              	.L17:
 179              		.loc 1 91 0
 180 0044 71400000 		e_li %r10,0
 181 0048 3549061C 		e_stb %r10,1564(%r9)
 182              		.loc 1 92 0
 183 004c 3469061A 		e_stb %r3,1562(%r9)
 184              		.loc 1 106 0
 185 0050 7060E000 		e_lis %r3,PWMD1@ha
 186              	.LVL13:
 187 0054 1C630000 		e_la %r3,PWMD1@l(%r3)
 188 0058 51230008 		e_lwz %r9,8(%r3)
 189              		.loc 1 107 0
 190              		.loc 1 106 0
 191 005c 7CA449D6 		mullw %r5,%r4,%r9
 192 0060 713AE1B7 		e_lis %r9,0xd1b7
 193 0064 4804     		se_li %r4,0
 194              	.LVL14:
 195 0066 7122C759 		e_or2i %r9,5977
 196 006a 7CA54816 		mulhwu %r5,%r5,%r9
 197 006e 68D5     		se_srwi %r5,13
 198 0070 78000000 		e_b pwmEnableChannel
 199              	.LVL15:
 200              	.L18:
 201              		.loc 1 95 0
 202 0074 71400001 		e_li %r10,1
 203              		.loc 1 106 0
 204 0078 7060E000 		e_lis %r3,PWMD1@ha
 205              	.LVL16:
 206              		.loc 1 95 0
 207 007c 3549061C 		e_stb %r10,1564(%r9)
 208              		.loc 1 106 0
 209 0080 1C630000 		e_la %r3,PWMD1@l(%r3)
 210              		.loc 1 96 0
 211 0084 71400000 		e_li %r10,0
 212 0088 3549061A 		e_stb %r10,1562(%r9)
 213              		.loc 1 106 0
 214 008c 51230008 		e_lwz %r9,8(%r3)
 215              		.loc 1 107 0
 216              		.loc 1 106 0
 217 0090 7CA449D6 		mullw %r5,%r4,%r9
 218 0094 713AE1B7 		e_lis %r9,0xd1b7
 219 0098 4804     		se_li %r4,0
 220              	.LVL17:
 221 009a 7122C759 		e_or2i %r9,5977
 222 009e 7CA54816 		mulhwu %r5,%r5,%r9
 223 00a2 68D5     		se_srwi %r5,13
 224 00a4 78000000 		e_b pwmEnableChannel
 225              	.LVL18:
 226              		.cfi_endproc
 227              	.LFE47:
 228              		.size	drivecmd, .-drivecmd
GAS LISTING C:\Users\UTILIS~1\AppData\Local\Temp\ccGo1KKu.s 			page 5


 229              		.section	.text.switchlightcmd,"axv",@progbits
 230              		.align 1
 231              		.p2align 4,,15
 232              		.globl switchlightcmd
 233              		.type	switchlightcmd, @function
 234              	switchlightcmd:
 235              	.LFB48:
 236              		.loc 1 110 0
 237              		.cfi_startproc
 238              	.LVL19:
 239              		.loc 1 111 0
 240 0000 2A04     		se_cmpi %r4,0
 241 0002 7A02003E 		e_bne %cr0,.L20
 242              		.loc 1 113 0
 243 0006 18A3A804 		e_cmpli %cr1,%r3,4
 244 000a 7A150034 		e_bgt %cr1,.L19
 245 000e 6C23     		se_slwi %r3, 2
 246              	.LVL20:
 247 0010 7120E000 		e_lis %r9,.L23@ha
 248 0014 1D290000 		e_la %r9,.L23@l(%r9)
 249 0018 7D49182E 		lwzx %r10,%r9,%r3
 250 001c 7D2A4A14 		add %r9,%r10,%r9
 251 0020 7D2903A6 		mtctr %r9
 252 0024 0006     		se_bctr
 253              		.section	.rodata.switchlightcmd,"a",@progbits
 254              		.align 2
 255              		.align 2
 256              	.L23:
 257 0000 00000000 		.long .L19-.L23
 258 0004 00000000 		.long .L22-.L23
 259 0008 00000000 		.long .L24-.L23
 260 000c 00000000 		.long .L25-.L23
 261 0010 00000000 		.long .L26-.L23
 262              		.section	.text.switchlightcmd
 263              	.LVL21:
 264              	.L34:
 265              		.loc 1 174 0
 266 0026 1824A803 		e_cmpi %cr1,%r4,3
 267 002a 7A060014 		e_bne %cr1,.L19
 268              		.loc 1 176 0
 269 002e 1823A803 		e_cmpi %cr1,%r3,3
 270 0032 7A06000C 		e_bne %cr1,.L19
 271              		.loc 1 177 0
 272 0036 7120E000 		e_lis %r9,nBlinkers@ha
 273 003a 54690000 		e_stw %r3,nBlinkers@l(%r9)
 274              	.LVL22:
 275              	.L19:
 276 003e 0004     		se_blr
 277              	.LVL23:
 278              	.L20:
 279              		.loc 1 140 0
 280 0040 1824A801 		e_cmpi %cr1,%r4,1
 281 0044 7A060024 		e_bne %cr1,.L27
 282              		.loc 1 142 0
 283 0048 18A3A804 		e_cmpli %cr1,%r3,4
 284 004c 7A15FFF2 		e_bgt %cr1,.L19
 285 0050 6C23     		se_slwi %r3, 2
GAS LISTING C:\Users\UTILIS~1\AppData\Local\Temp\ccGo1KKu.s 			page 6


 286              	.LVL24:
 287 0052 7120E000 		e_lis %r9,.L30@ha
 288 0056 1D290000 		e_la %r9,.L30@l(%r9)
 289 005a 7D49182E 		lwzx %r10,%r9,%r3
 290 005e 7D2A4A14 		add %r9,%r10,%r9
 291 0062 7D2903A6 		mtctr %r9
 292 0066 0006     		se_bctr
 293              		.section	.rodata.switchlightcmd
 294              		.align 2
 295              		.align 2
 296              	.L30:
 297 0014 00000000 		.long .L19-.L30
 298 0018 00000000 		.long .L29-.L30
 299 001c 00000000 		.long .L31-.L30
 300 0020 00000000 		.long .L32-.L30
 301 0024 00000000 		.long .L33-.L30
 302              		.section	.text.switchlightcmd
 303              	.LVL25:
 304              	.L27:
 305              		.loc 1 169 0
 306 0068 1824A802 		e_cmpi %cr1,%r4,2
 307 006c 7A06FFBA 		e_bne %cr1,.L34
 308              		.loc 1 171 0
 309 0070 1823A803 		e_cmpi %cr1,%r3,3
 310 0074 7A06FFCA 		e_bne %cr1,.L19
 311              		.loc 1 172 0
 312 0078 7120E000 		e_lis %r9,nBlinkers@ha
 313 007c 54890000 		e_stw %r4,nBlinkers@l(%r9)
 314 0080 0004     		se_blr
 315              	.LVL26:
 316              	.L26:
 317              		.loc 1 135 0
 318 0082 71400000 		e_li %r10,0
 319 0086 7120E000 		e_lis %r9,nWiper@ha
 320 008a 55490000 		e_stw %r10,nWiper@l(%r9)
 321              		.loc 1 136 0
 322 008e 0004     		se_blr
 323              	.L25:
 324              		.loc 1 129 0
 325 0090 71400000 		e_li %r10,0
 326 0094 7120E000 		e_lis %r9,nBlinkers@ha
 327 0098 55490000 		e_stw %r10,nBlinkers@l(%r9)
 328              		.loc 1 130 0
 329 009c 0004     		se_blr
 330              	.L24:
 331              		.loc 1 123 0
 332 009e 71400000 		e_li %r10,0
 333 00a2 7138E3F9 		e_lis %r9,0xc3f9
 334 00a6 35490629 		e_stb %r10,1577(%r9)
 335              		.loc 1 124 0
 336 00aa 0004     		se_blr
 337              	.L22:
 338              		.loc 1 117 0
 339 00ac 71400000 		e_li %r10,0
 340 00b0 7138E3F9 		e_lis %r9,0xc3f9
 341 00b4 35490611 		e_stb %r10,1553(%r9)
 342              		.loc 1 118 0
GAS LISTING C:\Users\UTILIS~1\AppData\Local\Temp\ccGo1KKu.s 			page 7


 343 00b8 0004     		se_blr
 344              	.L33:
 345              		.loc 1 164 0
 346 00ba 71400001 		e_li %r10,1
 347 00be 7120E000 		e_lis %r9,nWiper@ha
 348 00c2 55490000 		e_stw %r10,nWiper@l(%r9)
 349              		.loc 1 165 0
 350 00c6 0004     		se_blr
 351              	.L32:
 352              		.loc 1 158 0
 353 00c8 71400001 		e_li %r10,1
 354 00cc 7120E000 		e_lis %r9,nBlinkers@ha
 355 00d0 55490000 		e_stw %r10,nBlinkers@l(%r9)
 356              		.loc 1 159 0
 357 00d4 0004     		se_blr
 358              	.L31:
 359              		.loc 1 152 0
 360 00d6 71400001 		e_li %r10,1
 361 00da 7138E3F9 		e_lis %r9,0xc3f9
 362 00de 35490629 		e_stb %r10,1577(%r9)
 363              		.loc 1 153 0
 364 00e2 0004     		se_blr
 365              	.L29:
 366              		.loc 1 146 0
 367 00e4 71400001 		e_li %r10,1
 368 00e8 7138E3F9 		e_lis %r9,0xc3f9
 369 00ec 35490611 		e_stb %r10,1553(%r9)
 370              		.loc 1 147 0
 371 00f0 0004     		se_blr
 372              		.cfi_endproc
 373              	.LFE48:
 374              		.size	switchlightcmd, .-switchlightcmd
 375              		.section	.text.stopcmd,"axv",@progbits
 376              		.align 1
 377              		.p2align 4,,15
 378              		.globl stopcmd
 379              		.type	stopcmd, @function
 380              	stopcmd:
 381              	.LFB49:
 382              		.loc 1 181 0
 383              		.cfi_startproc
 384              		.loc 1 183 0
 385 0000 7138E3F9 		e_lis %r9,0xc3f9
 386 0004 71400000 		e_li %r10,0
 387 0008 3549061C 		e_stb %r10,1564(%r9)
 388              		.loc 1 184 0
 389 000c 3549061A 		e_stb %r10,1562(%r9)
 390              		.loc 1 187 0
 391 0010 3549061D 		e_stb %r10,1565(%r9)
 392              		.loc 1 188 0
 393 0014 3549061E 		e_stb %r10,1566(%r9)
 394 0018 0004     		se_blr
 395              		.cfi_endproc
 396              	.LFE49:
 397              		.size	stopcmd, .-stopcmd
 398              		.section	".text","axv"
 399              	.Letext0:
GAS LISTING C:\Users\UTILIS~1\AppData\Local\Temp\ccGo1KKu.s 			page 8


 400              		.file 2 "c:\\spc5studio\\eclipse\\plugins\\com.st.tools.spc5.tools.gnu.gcc.ppcvle.win32_1.0.0.2016
 401              		.file 3 "c:\\spc5studio\\eclipse\\plugins\\com.st.tools.spc5.tools.gnu.gcc.ppcvle.win32_1.0.0.2016
 402              		.file 4 "c:\\spc5studio\\eclipse\\plugins\\com.st.tools.spc5.tools.gnu.gcc.ppcvle.win32_1.0.0.2016
 403              		.file 5 "./components/chibios_rt_spc560dxx_kernel_port_component/lib/include/chtypes.h"
 404              		.file 6 "./components/chibios_rt_portable_kernel_component/lib/include/chlists.h"
 405              		.file 7 "./components/chibios_rt_portable_kernel_component/lib/include/chthreads.h"
 406              		.file 8 "./components/chibios_rt_spc560dxx_kernel_port_component/lib/include/chcore.h"
 407              		.file 9 "./components/chibios_rt_portable_kernel_component/lib/include/chvt.h"
 408              		.file 10 "./components/chibios_rt_portable_kernel_component/lib/include/chmtx.h"
 409              		.file 11 "./components/spc560dxx_hal_drivers_component/lib/include/xpc560d.h"
 410              		.file 12 "./components/portable_spc5_hal_component/lib/include/pwm.h"
 411              		.file 13 "./components/spc560dxx_hal_drivers_component/lib/include/pwm_lld.h"
 412              		.file 14 "./source/shellcmd.h"