GAS LISTING C:\Users\UTILIS~1\AppData\Local\Temp\ccE5vibu.s 			page 1


   1              		.file	"main.c"
   2              		.section	".text","axv"
   3              	.Ltext0:
   4              		.cfi_sections	.debug_frame
   5              		.section	.text.ThreadWiper,"axv",@progbits
   6              		.align 1
   7              		.p2align 4,,15
   8              		.type	ThreadWiper, @function
   9              	ThreadWiper:
  10              	.LFB46:
  11              		.file 1 "main.c"
  12              		.loc 1 106 0
  13              		.cfi_startproc
  14              	.LVL0:
  15 0000 182106E8 		e_stwu %r1,-24(%r1)
  16              	.LCFI0:
  17              		.cfi_def_cfa_offset 24
  18              		.loc 1 109 0
  19 0004 7120E000 		e_lis %r9,rlist+24@ha
  20              		.loc 1 106 0
  21 0008 1BA1090C 		e_stmw %r29,12(%r1)
  22              		.loc 1 109 0
  23 000c 51490000 		e_lwz %r10,rlist+24@l(%r9)
  24              		.loc 1 106 0
  25 0010 0080     		se_mflr %r0
  26              		.loc 1 109 0
  27 0012 7120E000 		e_lis %r9,.LC0@ha
  28              		.loc 1 106 0
  29 0016 D701     		se_stw %r0,28(%r1)
  30              		.cfi_offset 29, -12
  31              		.cfi_offset 30, -8
  32              		.cfi_offset 31, -4
  33              		.cfi_offset 65, 4
  34              		.loc 1 109 0
  35 0018 1D290000 		e_la %r9,.LC0@l(%r9)
  36 001c 73C0E000 		e_lis %r30,.LANCHOR0@ha
  37 0020 552A0018 		e_stw %r9,24(%r10)
  38 0024 1FDE0000 		e_la %r30,.LANCHOR0@l(%r30)
  39              		.loc 1 121 0
  40 0028 73F8E3F9 		e_lis %r31,0xc3f9
  41 002c 480D     		se_li %r29,0
  42              	.LVL1:
  43              	.L2:
  44              		.loc 1 113 0
  45 002e 513E0000 		e_lwz %r9,0(%r30)
  46 0032 1829A801 		e_cmpi %cr1,%r9,1
  47 0036 7A16001C 		e_beq %cr1,.L6
  48              	.L3:
  49              		.loc 1 121 0
  50 003a 37BF0624 		e_stb %r29,1572(%r31)
  51              		.loc 1 122 0
  52 003e 706003E8 		e_li %r3,1000
  53 0042 78000001 		e_bl chThdSleep
  54              	.LVL2:
  55              		.loc 1 113 0
  56 0046 513E0000 		e_lwz %r9,0(%r30)
  57 004a 1829A801 		e_cmpi %cr1,%r9,1
GAS LISTING C:\Users\UTILIS~1\AppData\Local\Temp\ccE5vibu.s 			page 2


  58 004e 7A06FFEC 		e_bne %cr1,.L3
  59              	.L6:
  60              		.loc 1 116 0
  61 0052 313F0624 		e_lbz %r9,1572(%r31)
  62              		.loc 1 117 0
  63 0056 706000FA 		e_li %r3,250
  64              		.loc 1 116 0
  65 005a 7D2948F8 		nor %r9,%r9,%r9
  66 005e 353F0624 		e_stb %r9,1572(%r31)
  67              		.loc 1 117 0
  68 0062 78000001 		e_bl chThdSleep
  69              	.LVL3:
  70 0066 79FFFFC8 		e_b .L2
  71              		.cfi_endproc
  72              	.LFE46:
  73              		.size	ThreadWiper, .-ThreadWiper
  74              		.section	.text.ThreadBlinkers,"axv",@progbits
  75              		.align 1
  76              		.p2align 4,,15
  77              		.type	ThreadBlinkers, @function
  78              	ThreadBlinkers:
  79              	.LFB45:
  80              		.loc 1 54 0
  81              		.cfi_startproc
  82              	.LVL4:
  83 0000 182106E8 		e_stwu %r1,-24(%r1)
  84              	.LCFI1:
  85              		.cfi_def_cfa_offset 24
  86              		.loc 1 57 0
  87 0004 7120E000 		e_lis %r9,rlist+24@ha
  88              		.loc 1 54 0
  89 0008 1BA1090C 		e_stmw %r29,12(%r1)
  90              		.loc 1 57 0
  91 000c 51490000 		e_lwz %r10,rlist+24@l(%r9)
  92              		.loc 1 54 0
  93 0010 0080     		se_mflr %r0
  94              		.loc 1 57 0
  95 0012 7120E000 		e_lis %r9,.LC1@ha
  96              		.loc 1 54 0
  97 0016 D701     		se_stw %r0,28(%r1)
  98              		.cfi_offset 29, -12
  99              		.cfi_offset 30, -8
 100              		.cfi_offset 31, -4
 101              		.cfi_offset 65, 4
 102              		.loc 1 57 0
 103 0018 1D290000 		e_la %r9,.LC1@l(%r9)
 104 001c 73A0E000 		e_lis %r29,.LANCHOR1@ha
 105 0020 552A0018 		e_stw %r9,24(%r10)
 106 0024 1FBD0000 		e_la %r29,.LANCHOR1@l(%r29)
 107              		.loc 1 94 0
 108 0028 73F8E3F9 		e_lis %r31,0xc3f9
 109 002c 480E     		se_li %r30,0
 110              	.LVL5:
 111              	.L8:
 112              		.loc 1 61 0
 113 002e 513D0000 		e_lwz %r9,0(%r29)
 114 0032 1829A801 		e_cmpi %cr1,%r9,1
GAS LISTING C:\Users\UTILIS~1\AppData\Local\Temp\ccE5vibu.s 			page 3


 115 0036 7A160030 		e_beq %cr1,.L13
 116              	.L9:
 117              		.loc 1 80 0
 118 003a 1829A802 		e_cmpi %cr1,%r9,2
 119 003e 7A160068 		e_beq %cr1,.L14
 120              		.loc 1 86 0
 121 0042 1829A803 		e_cmpi %cr1,%r9,3
 122 0046 7A16003C 		e_beq %cr1,.L15
 123              		.loc 1 94 0
 124 004a 37DF0602 		e_stb %r30,1538(%r31)
 125              		.loc 1 96 0
 126 004e 706003E8 		e_li %r3,1000
 127              		.loc 1 95 0
 128 0052 37DF0601 		e_stb %r30,1537(%r31)
 129              		.loc 1 96 0
 130 0056 78000001 		e_bl chThdSleep
 131              	.LVL6:
 132              		.loc 1 61 0
 133 005a 513D0000 		e_lwz %r9,0(%r29)
 134 005e 1829A801 		e_cmpi %cr1,%r9,1
 135 0062 7A06FFD8 		e_bne %cr1,.L9
 136              	.L13:
 137              		.loc 1 64 0
 138 0066 313F0602 		e_lbz %r9,1538(%r31)
 139              		.loc 1 66 0
 140 006a 706001F4 		e_li %r3,500
 141              		.loc 1 64 0
 142 006e 7D2948F8 		nor %r9,%r9,%r9
 143 0072 353F0602 		e_stb %r9,1538(%r31)
 144              		.loc 1 65 0
 145 0076 37DF0601 		e_stb %r30,1537(%r31)
 146              		.loc 1 66 0
 147 007a 78000001 		e_bl chThdSleep
 148              	.LVL7:
 149 007e 79FFFFB0 		e_b .L8
 150              	.L15:
 151              		.loc 1 88 0
 152 0082 313F0602 		e_lbz %r9,1538(%r31)
 153              		.loc 1 90 0
 154 0086 706001F4 		e_li %r3,500
 155              		.loc 1 88 0
 156 008a 7D2948F8 		nor %r9,%r9,%r9
 157 008e 353F0602 		e_stb %r9,1538(%r31)
 158              		.loc 1 89 0
 159 0092 313F0601 		e_lbz %r9,1537(%r31)
 160 0096 7D2948F8 		nor %r9,%r9,%r9
 161 009a 353F0601 		e_stb %r9,1537(%r31)
 162              		.loc 1 90 0
 163 009e 78000001 		e_bl chThdSleep
 164              	.LVL8:
 165 00a2 79FFFF8C 		e_b .L8
 166              	.L14:
 167              		.loc 1 82 0
 168 00a6 37DF0602 		e_stb %r30,1538(%r31)
 169              		.loc 1 84 0
 170 00aa 706001F4 		e_li %r3,500
 171              		.loc 1 83 0
GAS LISTING C:\Users\UTILIS~1\AppData\Local\Temp\ccE5vibu.s 			page 4


 172 00ae 313F0601 		e_lbz %r9,1537(%r31)
 173 00b2 7D2948F8 		nor %r9,%r9,%r9
 174 00b6 353F0601 		e_stb %r9,1537(%r31)
 175              		.loc 1 84 0
 176 00ba 78000001 		e_bl chThdSleep
 177              	.LVL9:
 178 00be 79FFFF70 		e_b .L8
 179              		.cfi_endproc
 180              	.LFE45:
 181              		.size	ThreadBlinkers, .-ThreadBlinkers
 182              		.section	.text.startup.main,"axv",@progbits
 183              		.align 1
 184              		.p2align 4,,15
 185              		.globl main
 186              		.type	main, @function
 187              	main:
 188              	.LFB47:
 189              		.loc 1 132 0
 190              		.cfi_startproc
 191              	.LVL10:
 192 0000 182106E0 		e_stwu %r1,-32(%r1)
 193              	.LCFI2:
 194              		.cfi_def_cfa_offset 32
 195 0004 7D800026 		mfcr %r12
 196 0008 0080     		se_mflr %r0
 197 000a 55810008 		e_stw %r12,8(%r1)
 198 000e D901     		se_stw %r0,36(%r1)
 199 0010 1B61090C 		e_stmw %r27,12(%r1)
 200              		.cfi_offset 65, 4
 201              		.cfi_offset 70, -24
 202              		.cfi_offset 27, -20
 203              		.cfi_offset 28, -16
 204              		.cfi_offset 29, -12
 205              		.cfi_offset 30, -8
 206              		.cfi_offset 31, -4
 207              		.loc 1 138 0
 208 0014 78000001 		e_bl componentsInit
 209              	.LVL11:
 210              		.loc 1 149 0
 211 0018 73E0E000 		e_lis %r31,PWMD1@ha
 212              		.loc 1 141 0
 213 001c 78000001 		e_bl initSpeedSensor
 214              	.LVL12:
 215              		.loc 1 149 0
 216 0020 1FFF0000 		e_la %r31,PWMD1@l(%r31)
 217              		.loc 1 144 0
 218 0024 78000001 		e_bl initEvents
 219              	.LVL13:
 220              		.loc 1 134 0
 221 0028 480E     		se_li %r30,0
 222              		.loc 1 149 0
 223 002a 01F3     		se_mr %r3,%r31
 224 002c 187EA800 		e_cmpi %cr3,%r30,0
 225 0030 7080E000 		e_lis %r4,pwm_config_cfgmotor@ha
 226 0034 7380E000 		e_lis %r28,.LANCHOR4@ha
 227 0038 1C840000 		e_la %r4,pwm_config_cfgmotor@l(%r4)
 228 003c 7360E000 		e_lis %r27,.LANCHOR5@ha
GAS LISTING C:\Users\UTILIS~1\AppData\Local\Temp\ccE5vibu.s 			page 5


 229 0040 78000001 		e_bl pwmStart
 230              	.LVL14:
 231 0044 1F9C0000 		e_la %r28,.LANCHOR4@l(%r28)
 232              		.loc 1 154 0
 233 0048 4804     		se_li %r4,0
 234 004a 7060E000 		e_lis %r3,SD1@ha
 235 004e 7D0C0020 		e_mcrf %cr2,%cr3
 236 0052 1C630000 		e_la %r3,SD1@l(%r3)
 237 0056 1F7B0000 		e_la %r27,.LANCHOR5@l(%r27)
 238 005a 78000001 		e_bl sdStart
 239              	.LVL15:
 240 005e 7FA00026 		mfcr %r29
 241 0062 77BD6007 		e_rlwinm %r29,%r29,12,0xf0000000
 242              		.loc 1 155 0
 243 0066 4804     		se_li %r4,0
 244 0068 7060E000 		e_lis %r3,SD2@ha
 245 006c 1C630000 		e_la %r3,SD2@l(%r3)
 246 0070 78000001 		e_bl sdStart
 247              	.LVL16:
 248              		.loc 1 160 0
 249 0074 01F3     		se_mr %r3,%r31
 250 0076 4804     		se_li %r4,0
 251 0078 4805     		se_li %r5,0
 252 007a 78000001 		e_bl pwmEnableChannel
 253              	.LVL17:
 254              		.loc 1 161 0
 255 007e 01F3     		se_mr %r3,%r31
 256 0080 4814     		se_li %r4,1
 257 0082 4805     		se_li %r5,0
 258              		.loc 1 133 0
 259 0084 480F     		se_li %r31,0
 260              		.loc 1 161 0
 261 0086 78000001 		e_bl pwmEnableChannel
 262              	.LVL18:
 263              		.loc 1 166 0
 264 008a 70800268 		e_li %r4,616
 265 008e 4C05     		se_li %r5,64
 266 0090 4807     		se_li %r7,0
 267 0092 7060E000 		e_lis %r3,.LANCHOR2@ha
 268 0096 70C0E000 		e_lis %r6,ThreadBlinkers@ha
 269 009a 1C630000 		e_la %r3,.LANCHOR2@l(%r3)
 270 009e 1CC60000 		e_la %r6,ThreadBlinkers@l(%r6)
 271 00a2 78000001 		e_bl chThdCreateStatic
 272              	.LVL19:
 273              		.loc 1 171 0
 274 00a6 7060E000 		e_lis %r3,.LANCHOR3@ha
 275 00aa 70800268 		e_li %r4,616
 276 00ae 1C630000 		e_la %r3,.LANCHOR3@l(%r3)
 277 00b2 4C05     		se_li %r5,64
 278 00b4 70C0E000 		e_lis %r6,ThreadWiper@ha
 279 00b8 4807     		se_li %r7,0
 280 00ba 1CC60000 		e_la %r6,ThreadWiper@l(%r6)
 281 00be 78000001 		e_bl chThdCreateStatic
 282              	.LVL20:
 283              		.loc 1 182 0
 284 00c2 7A1E002C 		e_beq %cr3,.L22
 285              	.LVL21:
GAS LISTING C:\Users\UTILIS~1\AppData\Local\Temp\ccE5vibu.s 			page 6


 286              	.L17:
 287              		.loc 1 184 0
 288 00c6 7A1A0070 		e_beq %cr2,.L23
 289              		.loc 1 187 0
 290 00ca 313F001C 		e_lbz %r9,28(%r31)
 291 00ce 1829A80E 		e_cmpi %cr1,%r9,14
 292 00d2 7A160034 		e_beq %cr1,.L24
 293              		.loc 1 190 0
 294 00d6 313E001C 		e_lbz %r9,28(%r30)
 295 00da 1829A80E 		e_cmpi %cr1,%r9,14
 296 00de 7A160040 		e_beq %cr1,.L25
 297              	.LVL22:
 298              	.L18:
 299              		.loc 1 194 0
 300 00e2 706003E8 		e_li %r3,1000
 301 00e6 78000001 		e_bl chThdSleep
 302              	.LVL23:
 303              		.loc 1 182 0
 304 00ea 7A0EFFDC 		e_bne %cr3,.L17
 305              	.L22:
 306              	.LVL24:
 307              		.loc 1 183 0
 308 00ee 01C3     		se_mr %r3,%r28
 309 00f0 708005E8 		e_li %r4,1512
 310 00f4 4C05     		se_li %r5,64
 311 00f6 78000001 		e_bl shellCreate
 312              	.LVL25:
 313 00fa 013F     		se_mr %r31,%r3
 314 00fc 2A0F     		se_cmpi %r31,0
 315 00fe 7D800020 		e_mcrf %cr3,%cr0
 316 0102 79FFFFE0 		e_b .L18
 317              	.LVL26:
 318              	.L24:
 319              		.loc 1 188 0
 320 0106 01F3     		se_mr %r3,%r31
 321 0108 77BDA03F 		e_rlwinm %r29,%r29,20,0xffffffff
 322 010c 7FA10120 		mtcrf 16,%r29
 323 0110 77BD603F 		e_rlwinm %r29,%r29,12,0xffffffff
 324 0114 78000001 		e_bl chThdRelease
 325              	.LVL27:
 326              		.loc 1 189 0
 327 0118 480F     		se_li %r31,0
 328 011a 79FFFFC8 		e_b .L18
 329              	.LVL28:
 330              	.L25:
 331              		.loc 1 191 0
 332 011e 01E3     		se_mr %r3,%r30
 333 0120 77BDC03F 		e_rlwinm %r29,%r29,24,0xffffffff
 334 0124 7FA20120 		mtcrf 32,%r29
 335 0128 77BD403F 		e_rlwinm %r29,%r29,8,0xffffffff
 336 012c 78000001 		e_bl chThdRelease
 337              	.LVL29:
 338              		.loc 1 192 0
 339 0130 480E     		se_li %r30,0
 340 0132 79FFFFB0 		e_b .L18
 341              	.LVL30:
 342              	.L23:
GAS LISTING C:\Users\UTILIS~1\AppData\Local\Temp\ccE5vibu.s 			page 7


 343              		.loc 1 185 0
 344 0136 01B3     		se_mr %r3,%r27
 345 0138 708005E8 		e_li %r4,1512
 346 013c 4C05     		se_li %r5,64
 347 013e 78000001 		e_bl shellCreate
 348              	.LVL31:
 349 0142 013E     		se_mr %r30,%r3
 350 0144 2A0E     		se_cmpi %r30,0
 351 0146 7D000020 		e_mcrf %cr2,%cr0
 352 014a 79FFFF98 		e_b .L18
 353              		.cfi_endproc
 354              	.LFE47:
 355              		.size	main, .-main
 356              		.globl carMode
 357              		.globl nWiper
 358              		.globl nBlinkers
 359              		.globl bLightOn
 360              		.section	.bss.waThread1,"aw",@nobits
 361              		.align 3
 362              		.set	.LANCHOR2,. + 0
 363              		.type	waThread1, @object
 364              		.size	waThread1, 616
 365              	waThread1:
 366 0000 00000000 		.zero	616
 366      00000000 
 366      00000000 
 366      00000000 
 366      00000000 
 367              		.section	.bss.waThread2,"aw",@nobits
 368              		.align 3
 369              		.set	.LANCHOR3,. + 0
 370              		.type	waThread2, @object
 371              		.size	waThread2, 616
 372              	waThread2:
 373 0000 00000000 		.zero	616
 373      00000000 
 373      00000000 
 373      00000000 
 373      00000000 
 374              		.section	.bss.carMode,"aw",@nobits
 375              		.align 2
 376              		.type	carMode, @object
 377              		.size	carMode, 4
 378              	carMode:
 379 0000 00000000 		.zero	4
 380              		.section	.rodata.shell_cfg_car,"a",@progbits
 381              		.align 2
 382              		.set	.LANCHOR5,. + 0
 383              		.type	shell_cfg_car, @object
 384              		.size	shell_cfg_car, 8
 385              	shell_cfg_car:
 386 0000 00000000 		.long	SD2
 387 0004 00000000 		.long	shell_commands_car
 388              		.section	.bss.bLightOn,"aw",@nobits
 389              		.type	bLightOn, @object
 390              		.size	bLightOn, 1
 391              	bLightOn:
GAS LISTING C:\Users\UTILIS~1\AppData\Local\Temp\ccE5vibu.s 			page 8


 392 0000 00       		.zero	1
 393              		.section	.rodata.str1.4,"aMS",@progbits,1
 394              		.align 2
 395              	.LC0:
 396 0000 77697065 		.string	"wiper"
 396      7200
 397 0006 0000     		.zero	2
 398              	.LC1:
 399 0008 626C696E 		.string	"blinker"
 399      6B657200 
 400              		.section	.rodata.shell_cfg1,"a",@progbits
 401              		.align 2
 402              		.set	.LANCHOR4,. + 0
 403              		.type	shell_cfg1, @object
 404              		.size	shell_cfg1, 8
 405              	shell_cfg1:
 406 0000 00000000 		.long	SD1
 407 0004 00000000 		.long	shell_commands
 408              		.section	.bss.nWiper,"aw",@nobits
 409              		.align 2
 410              		.set	.LANCHOR0,. + 0
 411              		.type	nWiper, @object
 412              		.size	nWiper, 4
 413              	nWiper:
 414 0000 00000000 		.zero	4
 415              		.section	.bss.nBlinkers,"aw",@nobits
 416              		.align 2
 417              		.set	.LANCHOR1,. + 0
 418              		.type	nBlinkers, @object
 419              		.size	nBlinkers, 4
 420              	nBlinkers:
 421 0000 00000000 		.zero	4
 422              		.section	".text","axv"
 423              	.Letext0:
 424              		.file 2 "c:\\spc5studio\\eclipse\\plugins\\com.st.tools.spc5.tools.gnu.gcc.ppcvle.win32_1.0.0.2016
 425              		.file 3 "c:\\spc5studio\\eclipse\\plugins\\com.st.tools.spc5.tools.gnu.gcc.ppcvle.win32_1.0.0.2016
 426              		.file 4 "c:\\spc5studio\\eclipse\\plugins\\com.st.tools.spc5.tools.gnu.gcc.ppcvle.win32_1.0.0.2016
 427              		.file 5 "./components/chibios_rt_spc560dxx_kernel_port_component/lib/include/chtypes.h"
 428              		.file 6 "./components/chibios_rt_portable_kernel_component/lib/include/chlists.h"
 429              		.file 7 "./components/chibios_rt_portable_kernel_component/lib/include/chthreads.h"
 430              		.file 8 "./components/chibios_rt_spc560dxx_kernel_port_component/lib/include/chcore.h"
 431              		.file 9 "./components/chibios_rt_portable_kernel_component/lib/include/chvt.h"
 432              		.file 10 "./components/chibios_rt_portable_kernel_component/lib/include/chschd.h"
 433              		.file 11 "./components/chibios_rt_portable_kernel_component/lib/include/chmtx.h"
 434              		.file 12 "./components/chibios_rt_portable_kernel_component/lib/include/chevents.h"
 435              		.file 13 "./components/chibios_rt_portable_kernel_component/lib/include/chqueues.h"
 436              		.file 14 "./components/chibios_rt_portable_kernel_component/lib/include/chstreams.h"
 437              		.file 15 "./components/chibios_rt_spc5xx_osal_component/lib/include/osal.h"
 438              		.file 16 "./components/spc560dxx_hal_drivers_component/lib/include/xpc560d.h"
 439              		.file 17 "./components/portable_spc5_hal_component/lib/include/hal_queues.h"
 440              		.file 18 "./components/portable_spc5_hal_component/lib/include/pwm.h"
 441              		.file 19 "./components/spc560dxx_hal_drivers_component/lib/include/pwm_lld.h"
 442              		.file 20 "./components/portable_spc5_hal_component/lib/include/serial.h"
 443              		.file 21 "./components/spc560dxx_hal_drivers_component/lib/include/spc5_linflex.h"
 444              		.file 22 "./components/spc560dxx_hal_drivers_component/lib/include/serial_lld.h"
 445              		.file 23 "./components/chibios_rt_portable_mini_shell_component/lib/include/shell.h"
 446              		.file 24 "./source/shellbt.h"
GAS LISTING C:\Users\UTILIS~1\AppData\Local\Temp\ccE5vibu.s 			page 9


 447              		.file 25 "./components/spc560dxx_hal_drivers_component/cfg/pwm_lld_cfg.h"
 448              		.file 26 "./components/components.h"
 449              		.file 27 "./source/speedsensor.h"
 450              		.file 28 "./components/chibios_rt_portable_kernel_component/lib/include/chdynamic.h"