GAS LISTING C:\Users\UTILIS~1\AppData\Local\Temp\ccchlLQu.s 			page 1


   1              		.file	"shellbt.c"
   2              		.section	".text","axv"
   3              	.Ltext0:
   4              		.cfi_sections	.debug_frame
   5              		.section	.text.chprintf.constprop.0,"axv",@progbits
   6              		.align 1
   7              		.p2align 4,,15
   8              		.type	chprintf.constprop.0, @function
   9              	chprintf.constprop.0:
  10              	.LFB47:
  11              		.file 1 "./components/chibios_rt_portable_output_formatter_component/lib/include/chprintf.h"
  12              		.loc 1 69 0
  13              		.cfi_startproc
  14              	.LVL0:
  15 0000 182106D0 		e_stwu %r1,-48(%r1)
  16              	.LCFI0:
  17              		.cfi_def_cfa_offset 48
  18 0004 0080     		se_mflr %r0
  19 0006 D651     		se_stw %r5,24(%r1)
  20 0008 DD01     		se_stw %r0,52(%r1)
  21              		.cfi_offset 65, 4
  22              		.loc 1 69 0
  23 000a 55210028 		e_stw %r9,40(%r1)
  24 000e D761     		se_stw %r6,28(%r1)
  25 0010 D871     		se_stw %r7,32(%r1)
  26 0012 55010024 		e_stw %r8,36(%r1)
  27 0016 5541002C 		e_stw %r10,44(%r1)
  28              		.loc 1 72 0
  29 001a 71200002 		e_li %r9,2
  30              		.loc 1 73 0
  31 001e 18A18008 		e_addi %r5,%r1,8
  32              		.loc 1 72 0
  33 0022 35210008 		e_stb %r9,8(%r1)
  34              		.loc 1 73 0
  35 0026 7080E000 		e_lis %r4,.LC0@ha
  36              	.LVL1:
  37              		.loc 1 72 0
  38 002a 71200000 		e_li %r9,0
  39              		.loc 1 73 0
  40 002e 1C840000 		e_la %r4,.LC0@l(%r4)
  41              		.loc 1 72 0
  42 0032 35210009 		e_stb %r9,9(%r1)
  43 0036 19218038 		e_addi %r9,%r1,56
  44 003a 5521000C 		e_stw %r9,12(%r1)
  45 003e 19218010 		e_addi %r9,%r1,16
  46 0042 55210010 		e_stw %r9,16(%r1)
  47              		.loc 1 73 0
  48 0046 78000001 		e_bl chvprintf
  49              	.LVL2:
  50              		.loc 1 75 0
  51 004a CD01     		se_lwz %r0,52(%r1)
  52 004c 0090     		se_mtlr %r0
  53              		.cfi_restore 65
  54 004e 18218030 		e_addi %r1,%r1,48
  55              	.LCFI1:
  56              		.cfi_def_cfa_offset 0
  57 0052 0004     		se_blr
GAS LISTING C:\Users\UTILIS~1\AppData\Local\Temp\ccchlLQu.s 			page 2


  58              		.cfi_endproc
  59              	.LFE47:
  60              		.size	chprintf.constprop.0, .-chprintf.constprop.0
  61              		.section	.text.ThreadGPS,"axv",@progbits
  62              		.align 1
  63              		.p2align 4,,15
  64              		.globl ThreadGPS
  65              		.type	ThreadGPS, @function
  66              	ThreadGPS:
  67              	.LFB46:
  68              		.file 2 "./source/shellbt.c"
  69              		.loc 2 34 0
  70              		.cfi_startproc
  71              	.LVL3:
  72 0000 182106E8 		e_stwu %r1,-24(%r1)
  73              	.LCFI2:
  74              		.cfi_def_cfa_offset 24
  75              		.loc 2 38 0
  76 0004 7120E000 		e_lis %r9,rlist+24@ha
  77              		.loc 2 34 0
  78 0008 1B810908 		e_stmw %r28,8(%r1)
  79              		.loc 2 38 0
  80 000c 51090000 		e_lwz %r8,rlist+24@l(%r9)
  81              		.loc 2 34 0
  82 0010 0080     		se_mflr %r0
  83              		.cfi_offset 28, -16
  84              		.cfi_offset 29, -12
  85              		.cfi_offset 30, -8
  86              		.cfi_offset 31, -4
  87              		.cfi_register 65, 0
  88              		.loc 2 40 0
  89 0012 73C0E000 		e_lis %r30,.LANCHOR0@ha
  90              		.loc 2 34 0
  91 0016 D701     		se_stw %r0,28(%r1)
  92              		.cfi_offset 65, 4
  93              		.loc 2 40 0
  94 0018 313E0000 		e_lbz %r9,.LANCHOR0@l(%r30)
  95              		.loc 2 38 0
  96 001c 7140E000 		e_lis %r10,.LC1@ha
  97              		.loc 2 34 0
  98 0020 013C     		se_mr %r28,%r3
  99              		.loc 2 38 0
 100 0022 1D4A0000 		e_la %r10,.LC1@l(%r10)
 101              		.loc 2 40 0
 102 0026 1829A800 		e_cmpi %cr1,%r9,0
 103              		.loc 2 38 0
 104 002a 55480018 		e_stw %r10,24(%r8)
 105              		.loc 2 40 0
 106 002e 7A160030 		e_beq %cr1,.L4
 107 0032 73A0E000 		e_lis %r29,.LC0@ha
 108 0036 480F     		se_li %r31,0
 109 0038 1FBD0000 		e_la %r29,.LC0@l(%r29)
 110 003c 1FDE0000 		e_la %r30,.LANCHOR0@l(%r30)
 111              	.LVL4:
 112              	.L3:
 113              		.loc 2 41 0
 114 0040 01F5     		se_mr %r5,%r31
GAS LISTING C:\Users\UTILIS~1\AppData\Local\Temp\ccchlLQu.s 			page 3


 115 0042 01C3     		se_mr %r3,%r28
 116 0044 01D4     		se_mr %r4,%r29
 117              		.loc 2 43 0
 118 0046 200F     		se_addi %r31,1
 119              	.LVL5:
 120              		.loc 2 41 0
 121 0048 78000001 		e_bl chprintf.constprop.0
 122              	.LVL6:
 123              		.loc 2 44 0
 124 004c 4E43     		se_li %r3,100
 125 004e 78000001 		e_bl chThdSleep
 126              	.LVL7:
 127              		.loc 2 40 0
 128 0052 313E0000 		e_lbz %r9,0(%r30)
 129 0056 1829A800 		e_cmpi %cr1,%r9,0
 130 005a 7A06FFE6 		e_bne %cr1,.L3
 131              	.LVL8:
 132              	.L4:
 133              		.loc 2 47 0
 134 005e 4803     		se_li %r3,0
 135 0060 78000001 		e_bl chThdExit
 136              	.LVL9:
 137              		.loc 2 50 0
 138 0064 C701     		se_lwz %r0,28(%r1)
 139 0066 0090     		se_mtlr %r0
 140              		.cfi_restore 65
 141 0068 1B810808 		e_lmw %r28,8(%r1)
 142              	.LVL10:
 143 006c 4803     		se_li %r3,0
 144 006e 2171     		se_addi %r1,24
 145              	.LCFI3:
 146              		.cfi_restore 31
 147              		.cfi_restore 30
 148              		.cfi_restore 29
 149              		.cfi_restore 28
 150              		.cfi_def_cfa_offset 0
 151 0070 0004     		se_blr
 152              		.cfi_endproc
 153              	.LFE46:
 154              		.size	ThreadGPS, .-ThreadGPS
 155              		.globl shell_commands_car
 156              		.globl waThreadGPS
 157              		.globl bGpsRunning
 158              		.globl tpgps
 159              		.section	.bss.bGpsRunning,"aw",@nobits
 160              		.set	.LANCHOR0,. + 0
 161              		.type	bGpsRunning, @object
 162              		.size	bGpsRunning, 1
 163              	bGpsRunning:
 164 0000 00       		.zero	1
 165              		.section	.rodata.shell_commands_car,"a",@progbits
 166              		.align 2
 167              		.type	shell_commands_car, @object
 168              		.size	shell_commands_car, 96
 169              	shell_commands_car:
 170 0000 00000000 		.long	.LC2
 171 0004 00000000 		.long	startgps
GAS LISTING C:\Users\UTILIS~1\AppData\Local\Temp\ccchlLQu.s 			page 4


 172 0008 00000000 		.long	.LC3
 173 000c 00000000 		.long	stopgps
 174 0010 00000000 		.long	.LC4
 175 0014 00000000 		.long	speed
 176 0018 00000000 		.long	.LC5
 177 001c 00000000 		.long	drive
 178 0020 00000000 		.long	.LC6
 179 0024 00000000 		.long	turn
 180 0028 00000000 		.long	.LC7
 181 002c 00000000 		.long	blink
 182 0030 00000000 		.long	.LC8
 183 0034 00000000 		.long	startdemo
 184 0038 00000000 		.long	.LC9
 185 003c 00000000 		.long	stopdemo
 186 0040 00000000 		.long	.LC10
 187 0044 00000000 		.long	light
 188 0048 00000000 		.long	.LC11
 189 004c 00000000 		.long	rpm
 190 0050 00000000 		.long	.LC12
 191 0054 00000000 		.long	mode
 192 0058 00000000 		.long	0
 193 005c 00000000 		.long	0
 194              		.section	.rodata.str1.4,"aMS",@progbits,1
 195              		.align 2
 196              	.LC0:
 197 0000 24475047 		.string	"$GPGGA,48.002911,%d,N,0.199962,W,0,00,,,M,,M,,*51\r\n"
 197      47412C34 
 197      382E3030 
 197      32393131 
 197      2C25642C 
 198              	.LC1:
 199 0034 54687265 		.string	"ThreadGPS"
 199      61644750 
 199      5300
 200 003e 0000     		.zero	2
 201              	.LC2:
 202 0040 73746172 		.string	"startgps"
 202      74677073 
 202      00
 203 0049 000000   		.zero	3
 204              	.LC3:
 205 004c 73746F70 		.string	"stopgps"
 205      67707300 
 206              	.LC4:
 207 0054 73706565 		.string	"speed"
 207      6400
 208 005a 0000     		.zero	2
 209              	.LC5:
 210 005c 64726976 		.string	"drive"
 210      6500
 211 0062 0000     		.zero	2
 212              	.LC6:
 213 0064 7475726E 		.string	"turn"
 213      00
 214 0069 000000   		.zero	3
 215              	.LC7:
 216 006c 626C696E 		.string	"blink"
GAS LISTING C:\Users\UTILIS~1\AppData\Local\Temp\ccchlLQu.s 			page 5


 216      6B00
 217 0072 0000     		.zero	2
 218              	.LC8:
 219 0074 73746172 		.string	"startdemo"
 219      7464656D 
 219      6F00
 220 007e 0000     		.zero	2
 221              	.LC9:
 222 0080 73746F70 		.string	"stopdemo"
 222      64656D6F 
 222      00
 223 0089 000000   		.zero	3
 224              	.LC10:
 225 008c 6C696768 		.string	"light"
 225      7400
 226 0092 0000     		.zero	2
 227              	.LC11:
 228 0094 72706D00 		.string	"rpm"
 229              	.LC12:
 230 0098 6D6F6465 		.string	"mode"
 230      00
 231              		.section	.bss.waThreadGPS,"aw",@nobits
 232              		.align 3
 233              		.type	waThreadGPS, @object
 234              		.size	waThreadGPS, 616
 235              	waThreadGPS:
 236 0000 00000000 		.zero	616
 236      00000000 
 236      00000000 
 236      00000000 
 236      00000000 
 237              		.section	.bss.tpgps,"aw",@nobits
 238              		.align 2
 239              		.type	tpgps, @object
 240              		.size	tpgps, 4
 241              	tpgps:
 242 0000 00000000 		.zero	4
 243              		.section	".text","axv"
 244              	.Letext0:
 245              		.file 3 "c:\\spc5studio\\eclipse\\plugins\\com.st.tools.spc5.tools.gnu.gcc.ppcvle.win32_1.0.0.2016
 246              		.file 4 "c:\\spc5studio\\eclipse\\plugins\\com.st.tools.spc5.tools.gnu.gcc.ppcvle.win32_1.0.0.2016
 247              		.file 5 "c:\\spc5studio\\eclipse\\plugins\\com.st.tools.spc5.tools.gnu.gcc.ppcvle.win32_1.0.0.2016
 248              		.file 6 "./components/chibios_rt_spc560dxx_kernel_port_component/lib/include/chtypes.h"
 249              		.file 7 "./components/chibios_rt_portable_kernel_component/lib/include/chlists.h"
 250              		.file 8 "./components/chibios_rt_portable_kernel_component/lib/include/chthreads.h"
 251              		.file 9 "./components/chibios_rt_spc560dxx_kernel_port_component/lib/include/chcore.h"
 252              		.file 10 "./components/chibios_rt_portable_kernel_component/lib/include/chvt.h"
 253              		.file 11 "./components/chibios_rt_portable_kernel_component/lib/include/chschd.h"
 254              		.file 12 "./components/chibios_rt_portable_kernel_component/lib/include/chmtx.h"
 255              		.file 13 "./components/chibios_rt_portable_kernel_component/lib/include/chstreams.h"
 256              		.file 14 "./components/chibios_rt_portable_mini_shell_component/lib/include/shell.h"
 257              		.file 15 "c:\\spc5studio\\eclipse\\plugins\\com.st.tools.spc5.tools.gnu.gcc.ppcvle.win32_1.0.0.201
 258              		.file 16 "<built-in>"