GAS LISTING C:\Users\UTILIS~1\AppData\Local\Temp\ccWpXaag.s 			page 1


   1              		.file	"shellcmd.c"
   2              		.section	".text","axv"
   3              	.Ltext0:
   4              		.cfi_sections	.debug_frame
   5              		.section	.text.ThreadFullDemo,"axv",@progbits
   6              		.align 1
   7              		.p2align 4,,15
   8              		.globl ThreadFullDemo
   9              		.type	ThreadFullDemo, @function
  10              	ThreadFullDemo:
  11              	.LFB47:
  12              		.file 1 "./source/shellcmd.c"
  13              		.loc 1 66 0
  14              		.cfi_startproc
  15              	.LVL0:
  16 0000 182106E8 		e_stwu %r1,-24(%r1)
  17              	.LCFI0:
  18              		.cfi_def_cfa_offset 24
  19              		.loc 1 68 0
  20 0004 7120E000 		e_lis %r9,rlist+24@ha
  21              		.loc 1 66 0
  22 0008 1B810908 		e_stmw %r28,8(%r1)
  23              		.loc 1 68 0
  24 000c 51490000 		e_lwz %r10,rlist+24@l(%r9)
  25              		.loc 1 66 0
  26 0010 0080     		se_mflr %r0
  27              		.cfi_offset 28, -16
  28              		.cfi_offset 29, -12
  29              		.cfi_offset 30, -8
  30              		.cfi_offset 31, -4
  31              		.cfi_register 65, 0
  32              		.loc 1 70 0
  33 0012 73E0E000 		e_lis %r31,.LANCHOR0@ha
  34              		.loc 1 66 0
  35 0016 D701     		se_stw %r0,28(%r1)
  36              		.cfi_offset 65, 4
  37              		.loc 1 68 0
  38 0018 7120E000 		e_lis %r9,.LC0@ha
  39 001c 1D290000 		e_la %r9,.LC0@l(%r9)
  40 0020 552A0018 		e_stw %r9,24(%r10)
  41              		.loc 1 70 0
  42 0024 313F0000 		e_lbz %r9,.LANCHOR0@l(%r31)
  43 0028 1829A800 		e_cmpi %cr1,%r9,0
  44 002c 7A1600CA 		e_beq %cr1,.L3
  45              		.loc 1 130 0
  46 0030 73C0E000 		e_lis %r30,bLightOn@ha
  47 0034 1FFF0000 		e_la %r31,.LANCHOR0@l(%r31)
  48 0038 1FDE0000 		e_la %r30,bLightOn@l(%r30)
  49 003c 481C     		se_li %r28,1
  50              		.loc 1 137 0
  51 003e 480D     		se_li %r29,0
  52 0040 78000098 		e_b .L2
  53              	.LVL1:
  54              	.L25:
  55              		.loc 1 84 0
  56 0044 70820388 		e_li %r4,5000
  57 0048 4823     		se_li %r3,2
GAS LISTING C:\Users\UTILIS~1\AppData\Local\Temp\ccWpXaag.s 			page 2


  58 004a 78000001 		e_bl drivecmd
  59              	.LVL2:
  60              		.loc 1 88 0
  61 004e 70620388 		e_li %r3,5000
  62 0052 78000001 		e_bl chThdSleep
  63              	.LVL3:
  64              		.loc 1 91 0
  65 0056 313F0000 		e_lbz %r9,0(%r31)
  66 005a 1829A800 		e_cmpi %cr1,%r9,0
  67 005e 7A1600AC 		e_beq %cr1,.L5
  68              		.loc 1 92 0
  69 0062 4813     		se_li %r3,1
  70 0064 78000001 		e_bl turncmd
  71              	.LVL4:
  72              		.loc 1 98 0
  73 0068 70620388 		e_li %r3,5000
  74 006c 78000001 		e_bl chThdSleep
  75              	.LVL5:
  76              		.loc 1 101 0
  77 0070 313F0000 		e_lbz %r9,0(%r31)
  78 0074 1829A800 		e_cmpi %cr1,%r9,0
  79 0078 7A160092 		e_beq %cr1,.L5
  80              		.loc 1 102 0
  81 007c 4823     		se_li %r3,2
  82 007e 78000001 		e_bl turncmd
  83              	.LVL6:
  84              		.loc 1 108 0
  85 0082 70620388 		e_li %r3,5000
  86 0086 78000001 		e_bl chThdSleep
  87              	.LVL7:
  88              		.loc 1 111 0
  89 008a 313F0000 		e_lbz %r9,0(%r31)
  90 008e 1829A800 		e_cmpi %cr1,%r9,0
  91 0092 7A160078 		e_beq %cr1,.L5
  92              		.loc 1 112 0
  93 0096 4803     		se_li %r3,0
  94 0098 78000001 		e_bl turncmd
  95              	.LVL8:
  96              		.loc 1 118 0
  97 009c 70620388 		e_li %r3,5000
  98 00a0 78000001 		e_bl chThdSleep
  99              	.LVL9:
 100              		.loc 1 121 0
 101 00a4 313F0000 		e_lbz %r9,0(%r31)
 102 00a8 1829A800 		e_cmpi %cr1,%r9,0
 103 00ac 7A16005E 		e_beq %cr1,.L5
 104              		.loc 1 122 0
 105 00b0 78000001 		e_bl stopcmd
 106              	.LVL10:
 107              		.loc 1 129 0
 108 00b4 313F0000 		e_lbz %r9,0(%r31)
 109 00b8 1829A800 		e_cmpi %cr1,%r9,0
 110 00bc 7A16004E 		e_beq %cr1,.L5
 111              		.loc 1 130 0
 112 00c0 90CE     		se_stb %r28,0(%r30)
 113              		.loc 1 136 0
 114 00c2 70690620 		e_li %r3,20000
GAS LISTING C:\Users\UTILIS~1\AppData\Local\Temp\ccWpXaag.s 			page 3


 115 00c6 78000001 		e_bl chThdSleep
 116              	.LVL11:
 117              		.loc 1 70 0
 118 00ca 313F0000 		e_lbz %r9,0(%r31)
 119              		.loc 1 137 0
 120 00ce 90DE     		se_stb %r29,0(%r30)
 121              		.loc 1 70 0
 122 00d0 1829A800 		e_cmpi %cr1,%r9,0
 123 00d4 7A160022 		e_beq %cr1,.L3
 124              	.L2:
 125              		.loc 1 74 0
 126 00d8 70820388 		e_li %r4,5000
 127 00dc 4813     		se_li %r3,1
 128 00de 78000001 		e_bl drivecmd
 129              	.LVL12:
 130              		.loc 1 80 0
 131 00e2 70620388 		e_li %r3,5000
 132 00e6 78000001 		e_bl chThdSleep
 133              	.LVL13:
 134              		.loc 1 83 0
 135 00ea 313F0000 		e_lbz %r9,0(%r31)
 136 00ee 1829A800 		e_cmpi %cr1,%r9,0
 137 00f2 7A06FF52 		e_bne %cr1,.L25
 138              	.L3:
 139              		.loc 1 140 0
 140 00f6 4803     		se_li %r3,0
 141 00f8 78000001 		e_bl chThdExit
 142              	.LVL14:
 143              		.loc 1 143 0
 144 00fc C701     		se_lwz %r0,28(%r1)
 145 00fe 0090     		se_mtlr %r0
 146              		.cfi_remember_state
 147              		.cfi_restore 65
 148 0100 1B810808 		e_lmw %r28,8(%r1)
 149 0104 4803     		se_li %r3,0
 150 0106 2171     		se_addi %r1,24
 151              	.LCFI1:
 152              		.cfi_restore 31
 153              		.cfi_restore 30
 154              		.cfi_restore 29
 155              		.cfi_restore 28
 156              		.cfi_def_cfa_offset 0
 157 0108 0004     		se_blr
 158              	.L5:
 159              	.LCFI2:
 160              		.cfi_restore_state
 161              		.loc 1 94 0
 162 010a 78000001 		e_bl stopcmd
 163              	.LVL15:
 164              		.loc 1 140 0
 165 010e 4803     		se_li %r3,0
 166 0110 78000001 		e_bl chThdExit
 167              	.LVL16:
 168              		.loc 1 143 0
 169 0114 C701     		se_lwz %r0,28(%r1)
 170 0116 0090     		se_mtlr %r0
 171              		.cfi_restore 65
GAS LISTING C:\Users\UTILIS~1\AppData\Local\Temp\ccWpXaag.s 			page 4


 172 0118 1B810808 		e_lmw %r28,8(%r1)
 173 011c 4803     		se_li %r3,0
 174 011e 2171     		se_addi %r1,24
 175              	.LCFI3:
 176              		.cfi_restore 28
 177              		.cfi_restore 29
 178              		.cfi_restore 30
 179              		.cfi_restore 31
 180              		.cfi_def_cfa_offset 0
 181 0120 0004     		se_blr
 182              		.cfi_endproc
 183              	.LFE47:
 184              		.size	ThreadFullDemo, .-ThreadFullDemo
 185              		.section	.text.chprintf,"axv",@progbits
 186              		.align 1
 187              		.p2align 4,,15
 188              		.type	chprintf, @function
 189              	chprintf:
 190              	.LFB44:
 191              		.file 2 "./components/chibios_rt_portable_output_formatter_component/lib/include/chprintf.h"
 192              		.loc 2 69 0
 193              		.cfi_startproc
 194              	.LVL17:
 195 0000 182106D0 		e_stwu %r1,-48(%r1)
 196              	.LCFI4:
 197              		.cfi_def_cfa_offset 48
 198 0004 0080     		se_mflr %r0
 199 0006 D651     		se_stw %r5,24(%r1)
 200 0008 DD01     		se_stw %r0,52(%r1)
 201              		.cfi_offset 65, 4
 202              		.loc 2 69 0
 203 000a 55210028 		e_stw %r9,40(%r1)
 204 000e D761     		se_stw %r6,28(%r1)
 205 0010 D871     		se_stw %r7,32(%r1)
 206 0012 55010024 		e_stw %r8,36(%r1)
 207 0016 5541002C 		e_stw %r10,44(%r1)
 208              		.loc 2 72 0
 209 001a 71200002 		e_li %r9,2
 210              		.loc 2 73 0
 211 001e 18A18008 		e_addi %r5,%r1,8
 212              		.loc 2 72 0
 213 0022 35210008 		e_stb %r9,8(%r1)
 214 0026 71200000 		e_li %r9,0
 215 002a 35210009 		e_stb %r9,9(%r1)
 216 002e 19218038 		e_addi %r9,%r1,56
 217 0032 5521000C 		e_stw %r9,12(%r1)
 218 0036 19218010 		e_addi %r9,%r1,16
 219 003a 55210010 		e_stw %r9,16(%r1)
 220              		.loc 2 73 0
 221 003e 78000001 		e_bl chvprintf
 222              	.LVL18:
 223              		.loc 2 75 0
 224 0042 CD01     		se_lwz %r0,52(%r1)
 225 0044 0090     		se_mtlr %r0
 226              		.cfi_restore 65
 227 0046 18218030 		e_addi %r1,%r1,48
 228              	.LCFI5:
GAS LISTING C:\Users\UTILIS~1\AppData\Local\Temp\ccWpXaag.s 			page 5


 229              		.cfi_def_cfa_offset 0
 230 004a 0004     		se_blr
 231              		.cfi_endproc
 232              	.LFE44:
 233              		.size	chprintf, .-chprintf
 234              		.section	.text.stopdemo,"axv",@progbits
 235              		.align 1
 236              		.p2align 4,,15
 237              		.globl stopdemo
 238              		.type	stopdemo, @function
 239              	stopdemo:
 240              	.LFB58:
 241              		.loc 1 366 0
 242              		.cfi_startproc
 243              	.LVL19:
 244              		.loc 1 369 0
 245 0000 2A04     		se_cmpi %r4,0
 246 0002 7A02000E 		e_bne %cr0,.L29
 247              		.loc 1 374 0
 248 0006 7120E000 		e_lis %r9,.LANCHOR0@ha
 249 000a 34890000 		e_stb %r4,.LANCHOR0@l(%r9)
 250 000e 0004     		se_blr
 251              	.L29:
 252              		.loc 1 370 0
 253 0010 7080E000 		e_lis %r4,.LC1@ha
 254              	.LVL20:
 255              		.loc 1 375 0
 256              		.loc 1 370 0
 257 0014 1C840000 		e_la %r4,.LC1@l(%r4)
 258 0018 78000000 		e_b chprintf
 259              	.LVL21:
 260              		.cfi_endproc
 261              	.LFE58:
 262              		.size	stopdemo, .-stopdemo
 263              		.section	.text.cmd_mem,"axv",@progbits
 264              		.align 1
 265              		.p2align 4,,15
 266              		.globl cmd_mem
 267              		.type	cmd_mem, @function
 268              	cmd_mem:
 269              	.LFB48:
 270              		.loc 1 148 0
 271              		.cfi_startproc
 272              	.LVL22:
 273 0000 182106E0 		e_stwu %r1,-32(%r1)
 274              	.LCFI6:
 275              		.cfi_def_cfa_offset 32
 276 0004 0080     		se_mflr %r0
 277 0006 1BC10918 		e_stmw %r30,24(%r1)
 278 000a D901     		se_stw %r0,36(%r1)
 279              		.cfi_offset 65, 4
 280              		.cfi_offset 30, -8
 281              		.cfi_offset 31, -4
 282              		.loc 1 148 0
 283 000c 013F     		se_mr %r31,%r3
 284              		.loc 1 152 0
 285 000e 1824A800 		e_cmpi %cr1,%r4,0
GAS LISTING C:\Users\UTILIS~1\AppData\Local\Temp\ccWpXaag.s 			page 6


 286 0012 7A05001C 		e_ble %cr1,.L31
 287              		.loc 1 153 0
 288 0016 7080E000 		e_lis %r4,.LC2@ha
 289              	.LVL23:
 290 001a 1C840000 		e_la %r4,.LC2@l(%r4)
 291 001e 78000001 		e_bl chprintf
 292              	.LVL24:
 293              		.loc 1 160 0
 294 0022 C901     		se_lwz %r0,36(%r1)
 295 0024 0090     		se_mtlr %r0
 296              		.cfi_remember_state
 297              		.cfi_restore 65
 298 0026 1BC10818 		e_lmw %r30,24(%r1)
 299              	.LVL25:
 300 002a 21F1     		se_addi %r1,32
 301              	.LCFI7:
 302              		.cfi_restore 31
 303              		.cfi_restore 30
 304              		.cfi_def_cfa_offset 0
 305 002c 0004     		se_blr
 306              	.LVL26:
 307              	.L31:
 308              	.LCFI8:
 309              		.cfi_restore_state
 310              	.LBB4:
 311              	.LBB5:
 312              		.loc 1 156 0
 313 002e 18818008 		e_addi %r4,%r1,8
 314              	.LVL27:
 315 0032 4803     		se_li %r3,0
 316              	.LVL28:
 317 0034 78000001 		e_bl chHeapStatus
 318              	.LVL29:
 319 0038 013E     		se_mr %r30,%r3
 320              	.LVL30:
 321              		.loc 1 157 0
 322 003a 78000001 		e_bl chCoreStatus
 323              	.LVL31:
 324 003e 7080E000 		e_lis %r4,.LC3@ha
 325 0042 0135     		se_mr %r5,%r3
 326 0044 1C840000 		e_la %r4,.LC3@l(%r4)
 327 0048 01F3     		se_mr %r3,%r31
 328 004a 78000001 		e_bl chprintf
 329              	.LVL32:
 330              		.loc 1 158 0
 331 004e 01F3     		se_mr %r3,%r31
 332 0050 01E5     		se_mr %r5,%r30
 333 0052 7080E000 		e_lis %r4,.LC4@ha
 334 0056 1C840000 		e_la %r4,.LC4@l(%r4)
 335 005a 78000001 		e_bl chprintf
 336              	.LVL33:
 337              		.loc 1 159 0
 338 005e 01F3     		se_mr %r3,%r31
 339 0060 C251     		se_lwz %r5,8(%r1)
 340 0062 7080E000 		e_lis %r4,.LC5@ha
 341 0066 1C840000 		e_la %r4,.LC5@l(%r4)
 342 006a 78000001 		e_bl chprintf
GAS LISTING C:\Users\UTILIS~1\AppData\Local\Temp\ccWpXaag.s 			page 7


 343              	.LVL34:
 344              	.LBE5:
 345              	.LBE4:
 346              		.loc 1 160 0
 347 006e C901     		se_lwz %r0,36(%r1)
 348 0070 0090     		se_mtlr %r0
 349              		.cfi_restore 65
 350 0072 1BC10818 		e_lmw %r30,24(%r1)
 351              	.LVL35:
 352 0076 21F1     		se_addi %r1,32
 353              	.LCFI9:
 354              		.cfi_restore 30
 355              		.cfi_restore 31
 356              		.cfi_def_cfa_offset 0
 357 0078 0004     		se_blr
 358              		.cfi_endproc
 359              	.LFE48:
 360              		.size	cmd_mem, .-cmd_mem
 361              		.section	.text.stopgps,"axv",@progbits
 362              		.align 1
 363              		.p2align 4,,15
 364              		.globl stopgps
 365              		.type	stopgps, @function
 366              	stopgps:
 367              	.LFB52:
 368              		.loc 1 233 0
 369              		.cfi_startproc
 370              	.LVL36:
 371 0000 182106F0 		e_stwu %r1,-16(%r1)
 372              	.LCFI10:
 373              		.cfi_def_cfa_offset 16
 374 0004 0080     		se_mflr %r0
 375 0006 1BC10908 		e_stmw %r30,8(%r1)
 376 000a D501     		se_stw %r0,20(%r1)
 377              		.cfi_offset 65, 4
 378              		.cfi_offset 30, -8
 379              		.cfi_offset 31, -4
 380              		.loc 1 236 0
 381 000c 1824A800 		e_cmpi %cr1,%r4,0
 382 0010 7A150020 		e_bgt %cr1,.L42
 383              	.LVL37:
 384              	.LBB8:
 385              	.LBB9:
 386              		.loc 1 244 0
 387 0014 73E0E000 		e_lis %r31,bGpsRunning@ha
 388 0018 313F0000 		e_lbz %r9,bGpsRunning@l(%r31)
 389 001c 1829A800 		e_cmpi %cr1,%r9,0
 390 0020 7A060026 		e_bne %cr1,.L43
 391              	.LVL38:
 392              	.L33:
 393              	.LBE9:
 394              	.LBE8:
 395              		.loc 1 251 0
 396 0024 C501     		se_lwz %r0,20(%r1)
 397 0026 0090     		se_mtlr %r0
 398              		.cfi_remember_state
 399              		.cfi_restore 65
GAS LISTING C:\Users\UTILIS~1\AppData\Local\Temp\ccWpXaag.s 			page 8


 400 0028 1BC10808 		e_lmw %r30,8(%r1)
 401 002c 20F1     		se_addi %r1,16
 402              	.LCFI11:
 403              		.cfi_restore 31
 404              		.cfi_restore 30
 405              		.cfi_def_cfa_offset 0
 406 002e 0004     		se_blr
 407              	.LVL39:
 408              	.L42:
 409              	.LCFI12:
 410              		.cfi_restore_state
 411 0030 C501     		se_lwz %r0,20(%r1)
 412 0032 1BC10808 		e_lmw %r30,8(%r1)
 413              		.loc 1 237 0
 414 0036 7080E000 		e_lis %r4,.LC6@ha
 415              	.LVL40:
 416              		.loc 1 251 0
 417              		.loc 1 237 0
 418 003a 1C840000 		e_la %r4,.LC6@l(%r4)
 419              		.loc 1 251 0
 420 003e 0090     		se_mtlr %r0
 421              		.cfi_remember_state
 422              		.cfi_restore 65
 423 0040 20F1     		se_addi %r1,16
 424              	.LCFI13:
 425              		.cfi_restore 31
 426              		.cfi_restore 30
 427              		.cfi_def_cfa_offset 0
 428              	.LBB14:
 429              	.LBB10:
 430              		.loc 1 249 0
 431 0042 78000000 		e_b chprintf
 432              	.LVL41:
 433              	.L43:
 434              	.LCFI14:
 435              		.cfi_restore_state
 436              		.loc 1 245 0
 437 0046 71200000 		e_li %r9,0
 438 004a 013E     		se_mr %r30,%r3
 439 004c 353F0000 		e_stb %r9,bGpsRunning@l(%r31)
 440              		.loc 1 246 0
 441 0050 7080E000 		e_lis %r4,.LC7@ha
 442              	.LVL42:
 443 0054 1C840000 		e_la %r4,.LC7@l(%r4)
 444 0058 78000001 		e_bl chprintf
 445              	.LVL43:
 446              		.loc 1 248 0
 447 005c 313F0000 		e_lbz %r9,bGpsRunning@l(%r31)
 448 0060 1829A800 		e_cmpi %cr1,%r9,0
 449 0064 7A16FFC0 		e_beq %cr1,.L33
 450              	.LBE10:
 451              	.LBE14:
 452              		.loc 1 251 0
 453 0068 C501     		se_lwz %r0,20(%r1)
 454              	.LBB15:
 455              	.LBB11:
 456              		.loc 1 249 0
GAS LISTING C:\Users\UTILIS~1\AppData\Local\Temp\ccWpXaag.s 			page 9


 457 006a 01E3     		se_mr %r3,%r30
 458 006c 7080E000 		e_lis %r4,.LC8@ha
 459              	.LBE11:
 460              	.LBE15:
 461              		.loc 1 251 0
 462 0070 1BC10808 		e_lmw %r30,8(%r1)
 463              	.LVL44:
 464              	.LBB16:
 465              	.LBB12:
 466              		.loc 1 249 0
 467 0074 1C840000 		e_la %r4,.LC8@l(%r4)
 468              	.LBE12:
 469              	.LBE16:
 470              		.loc 1 251 0
 471 0078 0090     		se_mtlr %r0
 472              		.cfi_restore 65
 473 007a 20F1     		se_addi %r1,16
 474              	.LCFI15:
 475              		.cfi_restore 30
 476              		.cfi_restore 31
 477              		.cfi_def_cfa_offset 0
 478              	.LBB17:
 479              	.LBB13:
 480              		.loc 1 249 0
 481 007c 78000000 		e_b chprintf
 482              	.LVL45:
 483              	.LBE13:
 484              	.LBE17:
 485              		.cfi_endproc
 486              	.LFE52:
 487              		.size	stopgps, .-stopgps
 488              		.section	.text.speed,"axv",@progbits
 489              		.align 1
 490              		.p2align 4,,15
 491              		.globl speed
 492              		.type	speed, @function
 493              	speed:
 494              	.LFB53:
 495              		.loc 1 256 0
 496              		.cfi_startproc
 497              	.LVL46:
 498              		.loc 1 259 0
 499 0000 1824A800 		e_cmpi %cr1,%r4,0
 500 0004 7A050010 		e_ble %cr1,.L45
 501              		.loc 1 260 0
 502 0008 7080E000 		e_lis %r4,.LC9@ha
 503              	.LVL47:
 504              		.loc 1 268 0
 505              		.loc 1 260 0
 506 000c 1C840000 		e_la %r4,.LC9@l(%r4)
 507 0010 78000000 		e_b chprintf
 508              	.LVL48:
 509              	.L45:
 510              	.LBB20:
 511              	.LBB21:
 512              		.loc 1 267 0
 513 0014 7080E000 		e_lis %r4,.LC10@ha
GAS LISTING C:\Users\UTILIS~1\AppData\Local\Temp\ccWpXaag.s 			page 10


 514              	.LVL49:
 515 0018 7120E000 		e_lis %r9,counter@ha
 516 001c 1C840000 		e_la %r4,.LC10@l(%r4)
 517 0020 50A90000 		e_lwz %r5,counter@l(%r9)
 518              	.LVL50:
 519              	.LBE21:
 520              	.LBE20:
 521              		.loc 1 268 0
 522              	.LBB23:
 523              	.LBB22:
 524              		.loc 1 267 0
 525 0024 78000000 		e_b chprintf
 526              	.LVL51:
 527              	.LBE22:
 528              	.LBE23:
 529              		.cfi_endproc
 530              	.LFE53:
 531              		.size	speed, .-speed
 532              		.section	.text.rpm,"axv",@progbits
 533              		.align 1
 534              		.p2align 4,,15
 535              		.globl rpm
 536              		.type	rpm, @function
 537              	rpm:
 538              	.LFB60:
 539              		.loc 1 416 0
 540              		.cfi_startproc
 541              	.LVL52:
 542 0000 182106E8 		e_stwu %r1,-24(%r1)
 543              	.LCFI16:
 544              		.cfi_def_cfa_offset 24
 545 0004 0080     		se_mflr %r0
 546 0006 1BA1090C 		e_stmw %r29,12(%r1)
 547 000a D701     		se_stw %r0,28(%r1)
 548              		.cfi_offset 65, 4
 549              		.cfi_offset 29, -12
 550              		.cfi_offset 30, -8
 551              		.cfi_offset 31, -4
 552              		.loc 1 423 0
 553 000c 1824A800 		e_cmpi %cr1,%r4,0
 554 0010 7A05001A 		e_ble %cr1,.L47
 555              		.loc 1 440 0
 556 0014 C701     		se_lwz %r0,28(%r1)
 557 0016 1BA1080C 		e_lmw %r29,12(%r1)
 558              		.loc 1 424 0
 559 001a 7080E000 		e_lis %r4,.LC11@ha
 560              	.LVL53:
 561              		.loc 1 440 0
 562              		.loc 1 424 0
 563 001e 1C840000 		e_la %r4,.LC11@l(%r4)
 564              		.loc 1 440 0
 565 0022 0090     		se_mtlr %r0
 566              		.cfi_remember_state
 567              		.cfi_restore 65
 568 0024 2171     		se_addi %r1,24
 569              	.LCFI17:
 570              		.cfi_restore 31
GAS LISTING C:\Users\UTILIS~1\AppData\Local\Temp\ccWpXaag.s 			page 11


 571              		.cfi_restore 30
 572              		.cfi_restore 29
 573              		.cfi_def_cfa_offset 0
 574              		.loc 1 424 0
 575 0026 78000000 		e_b chprintf
 576              	.LVL54:
 577              	.L47:
 578              	.LCFI18:
 579              		.cfi_restore_state
 580 002a 013F     		se_mr %r31,%r3
 581              	.LVL55:
 582              	.LBB26:
 583              	.LBB27:
 584              		.loc 1 433 0
 585 002c 73C0E000 		e_lis %r30,counter@ha
 586              		.loc 1 434 0
 587 0030 706001F4 		e_li %r3,500
 588              	.LVL56:
 589              		.loc 1 433 0
 590 0034 53BE0000 		e_lwz %r29,counter@l(%r30)
 591              	.LVL57:
 592              		.loc 1 434 0
 593 0038 78000001 		e_bl chThdSleep
 594              	.LVL58:
 595              	.LBE27:
 596              	.LBE26:
 597              		.loc 1 440 0
 598 003c C701     		se_lwz %r0,28(%r1)
 599              	.LBB33:
 600              	.LBB28:
 601              		.loc 1 435 0
 602 003e 513E0000 		e_lwz %r9,counter@l(%r30)
 603              		.loc 1 437 0
 604 0042 71400000 		e_li %r10,0
 605              		.loc 1 435 0
 606 0046 7D3D4850 		subf %r9, %r29, %r9
 607              		.loc 1 437 0
 608 004a 715DC260 		e_or2i %r10,60000
 609              		.loc 1 438 0
 610 004e 01F3     		se_mr %r3,%r31
 611              		.loc 1 437 0
 612 0050 7D2951D6 		mullw %r9,%r9,%r10
 613              	.LBE28:
 614              	.LBE33:
 615              		.loc 1 440 0
 616 0054 1BA1080C 		e_lmw %r29,12(%r1)
 617              	.LVL59:
 618              	.LBB34:
 619              	.LBB29:
 620              		.loc 1 437 0
 621 0058 7D25FE70 		srawi %r5,%r9,31
 622 005c 7142E062 		e_lis %r10,0x1062
 623              		.loc 1 438 0
 624 0060 7080E000 		e_lis %r4,.LC10@ha
 625              		.loc 1 437 0
 626 0064 7149C5D3 		e_or2i %r10,19923
 627              	.LBE29:
GAS LISTING C:\Users\UTILIS~1\AppData\Local\Temp\ccWpXaag.s 			page 12


 628              	.LBE34:
 629              		.loc 1 440 0
 630              	.LBB35:
 631              	.LBB30:
 632              		.loc 1 437 0
 633 0068 7D295096 		mulhw %r9,%r9,%r10
 634              		.loc 1 438 0
 635 006c 1C840000 		e_la %r4,.LC10@l(%r4)
 636              		.loc 1 437 0
 637 0070 7D292E70 		srawi %r9,%r9,5
 638              	.LBE30:
 639              	.LBE35:
 640              		.loc 1 440 0
 641 0074 0090     		se_mtlr %r0
 642              		.cfi_restore 65
 643              	.LBB36:
 644              	.LBB31:
 645              		.loc 1 438 0
 646 0076 7CA54850 		subf %r5, %r5, %r9
 647              	.LBE31:
 648              	.LBE36:
 649              		.loc 1 440 0
 650 007a 2171     		se_addi %r1,24
 651              	.LCFI19:
 652              		.cfi_restore 31
 653              		.cfi_restore 30
 654              		.cfi_restore 29
 655              		.cfi_def_cfa_offset 0
 656              	.LBB37:
 657              	.LBB32:
 658              		.loc 1 438 0
 659 007c 78000000 		e_b chprintf
 660              	.LVL60:
 661              	.LBE32:
 662              	.LBE37:
 663              		.cfi_endproc
 664              	.LFE60:
 665              		.size	rpm, .-rpm
 666              		.section	.text.cmd_threads,"axv",@progbits
 667              		.align 1
 668              		.p2align 4,,15
 669              		.globl cmd_threads
 670              		.type	cmd_threads, @function
 671              	cmd_threads:
 672              	.LFB49:
 673              		.loc 1 165 0
 674              		.cfi_startproc
 675              	.LVL61:
 676 0000 182106E8 		e_stwu %r1,-24(%r1)
 677              	.LCFI20:
 678              		.cfi_def_cfa_offset 24
 679 0004 0080     		se_mflr %r0
 680 0006 1B810908 		e_stmw %r28,8(%r1)
 681 000a D701     		se_stw %r0,28(%r1)
 682              		.cfi_offset 65, 4
 683              		.cfi_offset 28, -16
 684              		.cfi_offset 29, -12
GAS LISTING C:\Users\UTILIS~1\AppData\Local\Temp\ccWpXaag.s 			page 13


 685              		.cfi_offset 30, -8
 686              		.cfi_offset 31, -4
 687              		.loc 1 165 0
 688 000c 013E     		se_mr %r30,%r3
 689              		.loc 1 170 0
 690 000e 1824A800 		e_cmpi %cr1,%r4,0
 691 0012 7A05001A 		e_ble %cr1,.L49
 692              		.loc 1 183 0
 693 0016 C701     		se_lwz %r0,28(%r1)
 694 0018 1B810808 		e_lmw %r28,8(%r1)
 695              		.loc 1 171 0
 696 001c 7080E000 		e_lis %r4,.LC12@ha
 697              	.LVL62:
 698              		.loc 1 183 0
 699              		.loc 1 171 0
 700 0020 1C840000 		e_la %r4,.LC12@l(%r4)
 701              		.loc 1 183 0
 702 0024 0090     		se_mtlr %r0
 703              		.cfi_remember_state
 704              		.cfi_restore 65
 705 0026 2171     		se_addi %r1,24
 706              	.LCFI21:
 707              		.cfi_restore 31
 708              		.cfi_restore 30
 709              		.cfi_restore 29
 710              		.cfi_restore 28
 711              		.cfi_def_cfa_offset 0
 712              		.loc 1 171 0
 713 0028 78000000 		e_b chprintf
 714              	.LVL63:
 715              	.L49:
 716              	.LCFI22:
 717              		.cfi_restore_state
 718              	.LBB40:
 719              	.LBB41:
 720              		.loc 1 174 0
 721 002c 7080E000 		e_lis %r4,.LC13@ha
 722              	.LVL64:
 723 0030 7380E000 		e_lis %r28,.LC14@ha
 724 0034 1C840000 		e_la %r4,.LC13@l(%r4)
 725 0038 73A0E000 		e_lis %r29,.LANCHOR1@ha
 726 003c 78000001 		e_bl chprintf
 727              	.LVL65:
 728 0040 1F9C0000 		e_la %r28,.LC14@l(%r28)
 729              		.loc 1 175 0
 730 0044 78000001 		e_bl chRegFirstThread
 731              	.LVL66:
 732 0048 1FBD0000 		e_la %r29,.LANCHOR1@l(%r29)
 733 004c 013F     		se_mr %r31,%r3
 734              	.LVL67:
 735              	.L50:
 736              		.loc 1 177 0
 737 004e 515F0020 		e_lwz %r10,32(%r31)
 738              		.loc 1 179 0
 739 0052 311F001E 		e_lbz %r8,30(%r31)
 740              		.loc 1 177 0
 741 0056 313F001C 		e_lbz %r9,28(%r31)
GAS LISTING C:\Users\UTILIS~1\AppData\Local\Temp\ccWpXaag.s 			page 14


 742 005a 01F5     		se_mr %r5,%r31
 743 005c C36F     		se_lwz %r6,12(%r31)
 744 005e C27F     		se_lwz %r7,8(%r31)
 745 0060 01E3     		se_mr %r3,%r30
 746              	.LVL68:
 747 0062 01C4     		se_mr %r4,%r28
 748 0064 190884FF 		e_addi %r8,%r8,-1
 749 0068 7D291070 		e_slwi %r9,%r9,2
 750 006c 7D3D482E 		lwzx %r9,%r29,%r9
 751 0070 78000001 		e_bl chprintf
 752              	.LVL69:
 753              		.loc 1 181 0
 754 0074 01F3     		se_mr %r3,%r31
 755 0076 78000001 		e_bl chRegNextThread
 756              	.LVL70:
 757              		.loc 1 182 0
 758 007a 013F     		se_mr %r31,%r3
 759 007c 2A0F     		se_cmpi %r31,0
 760 007e 7A02FFD0 		e_bne %cr0,.L50
 761              	.LBE41:
 762              	.LBE40:
 763              		.loc 1 183 0
 764 0082 C701     		se_lwz %r0,28(%r1)
 765 0084 0090     		se_mtlr %r0
 766              		.cfi_restore 65
 767 0086 1B810808 		e_lmw %r28,8(%r1)
 768              	.LVL71:
 769 008a 2171     		se_addi %r1,24
 770              	.LCFI23:
 771              		.cfi_restore 31
 772              		.cfi_restore 30
 773              		.cfi_restore 29
 774              		.cfi_restore 28
 775              		.cfi_def_cfa_offset 0
 776 008c 0004     		se_blr
 777              		.cfi_endproc
 778              	.LFE49:
 779              		.size	cmd_threads, .-cmd_threads
 780              		.section	.text.startgps,"axv",@progbits
 781              		.align 1
 782              		.p2align 4,,15
 783              		.globl startgps
 784              		.type	startgps, @function
 785              	startgps:
 786              	.LFB51:
 787              		.loc 1 208 0
 788              		.cfi_startproc
 789              	.LVL72:
 790 0000 182106F8 		e_stwu %r1,-8(%r1)
 791              	.LCFI24:
 792              		.cfi_def_cfa_offset 8
 793 0004 0080     		se_mflr %r0
 794              		.loc 1 211 0
 795 0006 1824A800 		e_cmpi %cr1,%r4,0
 796              		.loc 1 208 0
 797 000a D301     		se_stw %r0,12(%r1)
 798              		.cfi_offset 65, 4
GAS LISTING C:\Users\UTILIS~1\AppData\Local\Temp\ccWpXaag.s 			page 15


 799              		.loc 1 211 0
 800 000c 7A15006C 		e_bgt %cr1,.L58
 801              		.loc 1 219 0
 802 0010 7140E000 		e_lis %r10,bGpsRunning@ha
 803 0014 312A0000 		e_lbz %r9,bGpsRunning@l(%r10)
 804 0018 1829A800 		e_cmpi %cr1,%r9,0
 805 001c 7A160016 		e_beq %cr1,.L59
 806              		.loc 1 228 0
 807 0020 C301     		se_lwz %r0,12(%r1)
 808              		.loc 1 226 0
 809 0022 7080E000 		e_lis %r4,.LC17@ha
 810              	.LVL73:
 811              		.loc 1 228 0
 812              		.loc 1 226 0
 813 0026 1C840000 		e_la %r4,.LC17@l(%r4)
 814              		.loc 1 228 0
 815 002a 0090     		se_mtlr %r0
 816              		.cfi_remember_state
 817              		.cfi_restore 65
 818 002c 2071     		se_addi %r1,8
 819              	.LCFI25:
 820              		.cfi_def_cfa_offset 0
 821              		.loc 1 226 0
 822 002e 78000000 		e_b chprintf
 823              	.LVL74:
 824              	.L59:
 825              	.LCFI26:
 826              		.cfi_restore_state
 827              	.LBB44:
 828              	.LBB45:
 829              		.loc 1 220 0
 830 0032 71200001 		e_li %r9,1
 831              		.loc 1 221 0
 832 0036 7080E000 		e_lis %r4,.LC16@ha
 833              	.LVL75:
 834              		.loc 1 220 0
 835 003a 352A0000 		e_stb %r9,bGpsRunning@l(%r10)
 836              		.loc 1 221 0
 837 003e 1C840000 		e_la %r4,.LC16@l(%r4)
 838 0042 78000001 		e_bl chprintf
 839              	.LVL76:
 840              		.loc 1 222 0
 841 0046 7060E000 		e_lis %r3,waThreadGPS@ha
 842 004a 70800268 		e_li %r4,616
 843 004e 1C630000 		e_la %r3,waThreadGPS@l(%r3)
 844 0052 4C05     		se_li %r5,64
 845 0054 70C0E000 		e_lis %r6,ThreadGPS@ha
 846 0058 70E0E000 		e_lis %r7,SD2@ha
 847 005c 1CC60000 		e_la %r6,ThreadGPS@l(%r6)
 848 0060 1CE70000 		e_la %r7,SD2@l(%r7)
 849 0064 78000001 		e_bl chThdCreateStatic
 850              	.LVL77:
 851              	.LBE45:
 852              	.LBE44:
 853              		.loc 1 228 0
 854 0068 C301     		se_lwz %r0,12(%r1)
 855 006a 0090     		se_mtlr %r0
GAS LISTING C:\Users\UTILIS~1\AppData\Local\Temp\ccWpXaag.s 			page 16


 856              		.cfi_remember_state
 857              		.cfi_restore 65
 858              	.LBB48:
 859              	.LBB46:
 860              		.loc 1 222 0
 861 006c 7120E000 		e_lis %r9,tpgps@ha
 862              	.LBE46:
 863              	.LBE48:
 864              		.loc 1 228 0
 865              	.LBB49:
 866              	.LBB47:
 867              		.loc 1 222 0
 868 0070 54690000 		e_stw %r3,tpgps@l(%r9)
 869              	.LBE47:
 870              	.LBE49:
 871              		.loc 1 228 0
 872 0074 2071     		se_addi %r1,8
 873              	.LCFI27:
 874              		.cfi_def_cfa_offset 0
 875 0076 0004     		se_blr
 876              	.LVL78:
 877              	.L58:
 878              	.LCFI28:
 879              		.cfi_restore_state
 880 0078 C301     		se_lwz %r0,12(%r1)
 881              		.loc 1 212 0
 882 007a 7080E000 		e_lis %r4,.LC15@ha
 883              	.LVL79:
 884              		.loc 1 228 0
 885              		.loc 1 212 0
 886 007e 1C840000 		e_la %r4,.LC15@l(%r4)
 887              		.loc 1 228 0
 888 0082 0090     		se_mtlr %r0
 889              		.cfi_restore 65
 890 0084 2071     		se_addi %r1,8
 891              	.LCFI29:
 892              		.cfi_def_cfa_offset 0
 893              		.loc 1 226 0
 894 0086 78000000 		e_b chprintf
 895              	.LVL80:
 896              		.cfi_endproc
 897              	.LFE51:
 898              		.size	startgps, .-startgps
 899              		.section	.text.startdemo,"axv",@progbits
 900              		.align 1
 901              		.p2align 4,,15
 902              		.globl startdemo
 903              		.type	startdemo, @function
 904              	startdemo:
 905              	.LFB57:
 906              		.loc 1 341 0
 907              		.cfi_startproc
 908              	.LVL81:
 909              		.loc 1 341 0
 910 0000 0137     		se_mr %r7,%r3
 911              		.loc 1 344 0
 912 0002 1824A800 		e_cmpi %cr1,%r4,0
GAS LISTING C:\Users\UTILIS~1\AppData\Local\Temp\ccWpXaag.s 			page 17


 913 0006 7A060042 		e_bne %cr1,.L63
 914              		.loc 1 349 0
 915 000a 7140E000 		e_lis %r10,.LANCHOR0@ha
 916 000e 312A0000 		e_lbz %r9,.LANCHOR0@l(%r10)
 917 0012 1829A800 		e_cmpi %cr1,%r9,0
 918 0016 7A160010 		e_beq %cr1,.L64
 919              		.loc 1 358 0
 920 001a 7080E000 		e_lis %r4,.LC19@ha
 921              	.LVL82:
 922              		.loc 1 361 0
 923              		.loc 1 358 0
 924 001e 1C840000 		e_la %r4,.LC19@l(%r4)
 925 0022 78000000 		e_b chprintf
 926              	.LVL83:
 927              	.L64:
 928              	.LBB52:
 929              	.LBB53:
 930              		.loc 1 350 0
 931 0026 71200001 		e_li %r9,1
 932              		.loc 1 354 0
 933 002a 7060E000 		e_lis %r3,.LANCHOR2@ha
 934              	.LVL84:
 935 002e 70C0E000 		e_lis %r6,ThreadFullDemo@ha
 936              		.loc 1 350 0
 937 0032 352A0000 		e_stb %r9,.LANCHOR0@l(%r10)
 938              		.loc 1 354 0
 939 0036 1C630000 		e_la %r3,.LANCHOR2@l(%r3)
 940 003a 70800268 		e_li %r4,616
 941              	.LVL85:
 942 003e 4C05     		se_li %r5,64
 943              	.LVL86:
 944 0040 1CC60000 		e_la %r6,ThreadFullDemo@l(%r6)
 945              	.LBE53:
 946              	.LBE52:
 947              		.loc 1 361 0
 948              	.LBB55:
 949              	.LBB54:
 950              		.loc 1 354 0
 951 0044 78000000 		e_b chThdCreateStatic
 952              	.LVL87:
 953              	.L63:
 954              	.LBE54:
 955              	.LBE55:
 956              		.loc 1 345 0
 957 0048 7080E000 		e_lis %r4,.LC18@ha
 958              	.LVL88:
 959              		.loc 1 361 0
 960              		.loc 1 345 0
 961 004c 1C840000 		e_la %r4,.LC18@l(%r4)
 962 0050 78000000 		e_b chprintf
 963              	.LVL89:
 964              		.cfi_endproc
 965              	.LFE57:
 966              		.size	startdemo, .-startdemo
 967              		.section	.text.drive,"axv",@progbits
 968              		.align 1
 969              		.p2align 4,,15
GAS LISTING C:\Users\UTILIS~1\AppData\Local\Temp\ccWpXaag.s 			page 18


 970              		.globl drive
 971              		.type	drive, @function
 972              	drive:
 973              	.LFB54:
 974              		.loc 1 273 0
 975              		.cfi_startproc
 976              	.LVL90:
 977 0000 182106E8 		e_stwu %r1,-24(%r1)
 978              	.LCFI30:
 979              		.cfi_def_cfa_offset 24
 980 0004 0080     		se_mflr %r0
 981 0006 1BA1090C 		e_stmw %r29,12(%r1)
 982 000a D701     		se_stw %r0,28(%r1)
 983              		.cfi_offset 65, 4
 984              		.cfi_offset 29, -12
 985              		.cfi_offset 30, -8
 986              		.cfi_offset 31, -4
 987              		.loc 1 279 0
 988 000c 1824A802 		e_cmpi %cr1,%r4,2
 989 0010 7A16001A 		e_beq %cr1,.L66
 990              		.loc 1 294 0
 991 0014 C701     		se_lwz %r0,28(%r1)
 992 0016 1BA1080C 		e_lmw %r29,12(%r1)
 993              		.loc 1 280 0
 994 001a 7080E000 		e_lis %r4,.LC20@ha
 995              	.LVL91:
 996              		.loc 1 294 0
 997              		.loc 1 280 0
 998 001e 1C840000 		e_la %r4,.LC20@l(%r4)
 999              		.loc 1 294 0
 1000 0022 0090     		se_mtlr %r0
 1001              		.cfi_remember_state
 1002              		.cfi_restore 65
 1003 0024 2171     		se_addi %r1,24
 1004              	.LCFI31:
 1005              		.cfi_restore 31
 1006              		.cfi_restore 30
 1007              		.cfi_restore 29
 1008              		.cfi_def_cfa_offset 0
 1009              	.LBB58:
 1010              	.LBB59:
 1011              		.loc 1 288 0
 1012 0026 78000000 		e_b chprintf
 1013              	.LVL92:
 1014              	.L66:
 1015              	.LCFI32:
 1016              		.cfi_restore_state
 1017 002a 015F     		se_mr %r31,%r5
 1018 002c 013E     		se_mr %r30,%r3
 1019              	.LVL93:
 1020              		.loc 1 284 0
 1021 002e C035     		se_lwz %r3,0(%r5)
 1022              	.LVL94:
 1023 0030 78000001 		e_bl atoi
 1024              	.LVL95:
 1025 0034 013D     		se_mr %r29,%r3
 1026              	.LVL96:
GAS LISTING C:\Users\UTILIS~1\AppData\Local\Temp\ccWpXaag.s 			page 19


 1027              		.loc 1 285 0
 1028 0036 C13F     		se_lwz %r3,4(%r31)
 1029              	.LVL97:
 1030 0038 78000001 		e_bl atoi
 1031              	.LVL98:
 1032 003c 0134     		se_mr %r4,%r3
 1033              	.LVL99:
 1034              		.loc 1 287 0
 1035 003e 7083AF10 		e_cmpl16i %r3,10000
 1036 0042 7A110014 		e_bgt %cr0,.L69
 1037              	.LBE59:
 1038              	.LBE58:
 1039              		.loc 1 294 0
 1040 0046 C701     		se_lwz %r0,28(%r1)
 1041              	.LBB65:
 1042              	.LBB60:
 1043              		.loc 1 291 0
 1044 0048 01D3     		se_mr %r3,%r29
 1045              	.LVL100:
 1046              	.LBE60:
 1047              	.LBE65:
 1048              		.loc 1 294 0
 1049 004a 0090     		se_mtlr %r0
 1050              		.cfi_remember_state
 1051              		.cfi_restore 65
 1052 004c 1BA1080C 		e_lmw %r29,12(%r1)
 1053              	.LVL101:
 1054 0050 2171     		se_addi %r1,24
 1055              	.LCFI33:
 1056              		.cfi_restore 31
 1057              		.cfi_restore 30
 1058              		.cfi_restore 29
 1059              		.cfi_def_cfa_offset 0
 1060              	.LBB66:
 1061              	.LBB61:
 1062              		.loc 1 291 0
 1063 0052 78000000 		e_b drivecmd
 1064              	.LVL102:
 1065              	.L69:
 1066              	.LCFI34:
 1067              		.cfi_restore_state
 1068              	.LBE61:
 1069              	.LBE66:
 1070              		.loc 1 294 0
 1071 0056 C701     		se_lwz %r0,28(%r1)
 1072              	.LBB67:
 1073              	.LBB62:
 1074              		.loc 1 288 0
 1075 0058 01E3     		se_mr %r3,%r30
 1076              	.LVL103:
 1077 005a 7080E000 		e_lis %r4,.LC21@ha
 1078              	.LVL104:
 1079              	.LBE62:
 1080              	.LBE67:
 1081              		.loc 1 294 0
 1082 005e 1BA1080C 		e_lmw %r29,12(%r1)
 1083              	.LVL105:
GAS LISTING C:\Users\UTILIS~1\AppData\Local\Temp\ccWpXaag.s 			page 20


 1084              	.LBB68:
 1085              	.LBB63:
 1086              		.loc 1 288 0
 1087 0062 1C840000 		e_la %r4,.LC21@l(%r4)
 1088              	.LBE63:
 1089              	.LBE68:
 1090              		.loc 1 294 0
 1091 0066 0090     		se_mtlr %r0
 1092              		.cfi_restore 65
 1093 0068 2171     		se_addi %r1,24
 1094              	.LCFI35:
 1095              		.cfi_restore 29
 1096              		.cfi_restore 30
 1097              		.cfi_restore 31
 1098              		.cfi_def_cfa_offset 0
 1099              	.LBB69:
 1100              	.LBB64:
 1101              		.loc 1 288 0
 1102 006a 78000000 		e_b chprintf
 1103              	.LVL106:
 1104              	.LBE64:
 1105              	.LBE69:
 1106              		.cfi_endproc
 1107              	.LFE54:
 1108              		.size	drive, .-drive
 1109              		.section	.text.turn,"axv",@progbits
 1110              		.align 1
 1111              		.p2align 4,,15
 1112              		.globl turn
 1113              		.type	turn, @function
 1114              	turn:
 1115              	.LFB55:
 1116              		.loc 1 299 0
 1117              		.cfi_startproc
 1118              	.LVL107:
 1119 0000 182106F8 		e_stwu %r1,-8(%r1)
 1120              	.LCFI36:
 1121              		.cfi_def_cfa_offset 8
 1122 0004 0080     		se_mflr %r0
 1123              		.loc 1 304 0
 1124 0006 1824A801 		e_cmpi %cr1,%r4,1
 1125              		.loc 1 299 0
 1126 000a D301     		se_stw %r0,12(%r1)
 1127              		.cfi_offset 65, 4
 1128              		.loc 1 304 0
 1129 000c 7A160016 		e_beq %cr1,.L71
 1130              		.loc 1 313 0
 1131 0010 C301     		se_lwz %r0,12(%r1)
 1132              		.loc 1 305 0
 1133 0012 7080E000 		e_lis %r4,.LC22@ha
 1134              	.LVL108:
 1135              		.loc 1 313 0
 1136              		.loc 1 305 0
 1137 0016 1C840000 		e_la %r4,.LC22@l(%r4)
 1138              		.loc 1 313 0
 1139 001a 0090     		se_mtlr %r0
 1140              		.cfi_remember_state
GAS LISTING C:\Users\UTILIS~1\AppData\Local\Temp\ccWpXaag.s 			page 21


 1141              		.cfi_restore 65
 1142 001c 2071     		se_addi %r1,8
 1143              	.LCFI37:
 1144              		.cfi_def_cfa_offset 0
 1145              		.loc 1 305 0
 1146 001e 78000000 		e_b chprintf
 1147              	.LVL109:
 1148              	.L71:
 1149              	.LCFI38:
 1150              		.cfi_restore_state
 1151              	.LBB72:
 1152              	.LBB73:
 1153              		.loc 1 309 0
 1154 0022 C035     		se_lwz %r3,0(%r5)
 1155              	.LVL110:
 1156 0024 78000001 		e_bl atoi
 1157              	.LVL111:
 1158              	.LBE73:
 1159              	.LBE72:
 1160              		.loc 1 313 0
 1161 0028 C301     		se_lwz %r0,12(%r1)
 1162 002a 0090     		se_mtlr %r0
 1163              		.cfi_restore 65
 1164 002c 2071     		se_addi %r1,8
 1165              	.LCFI39:
 1166              		.cfi_def_cfa_offset 0
 1167              	.LBB75:
 1168              	.LBB74:
 1169              		.loc 1 312 0
 1170 002e 78000000 		e_b turncmd
 1171              	.LVL112:
 1172              	.LBE74:
 1173              	.LBE75:
 1174              		.cfi_endproc
 1175              	.LFE55:
 1176              		.size	turn, .-turn
 1177              		.section	.text.blink,"axv",@progbits
 1178              		.align 1
 1179              		.p2align 4,,15
 1180              		.globl blink
 1181              		.type	blink, @function
 1182              	blink:
 1183              	.LFB56:
 1184              		.loc 1 318 0
 1185              		.cfi_startproc
 1186              	.LVL113:
 1187 0000 182106F8 		e_stwu %r1,-8(%r1)
 1188              	.LCFI40:
 1189              		.cfi_def_cfa_offset 8
 1190 0004 0080     		se_mflr %r0
 1191              		.loc 1 323 0
 1192 0006 1824A800 		e_cmpi %cr1,%r4,0
 1193              		.loc 1 318 0
 1194 000a D301     		se_stw %r0,12(%r1)
 1195              		.cfi_offset 65, 4
 1196              		.loc 1 323 0
 1197 000c 7A160034 		e_beq %cr1,.L76
GAS LISTING C:\Users\UTILIS~1\AppData\Local\Temp\ccWpXaag.s 			page 22


 1198              	.LVL114:
 1199              	.LBB78:
 1200              	.LBB79:
 1201              		.loc 1 328 0
 1202 0010 C035     		se_lwz %r3,0(%r5)
 1203              	.LVL115:
 1204 0012 78000001 		e_bl atoi
 1205              	.LVL116:
 1206              		.loc 1 330 0
 1207 0016 2A03     		se_cmpi %r3,0
 1208 0018 7A020014 		e_bne %cr0,.L77
 1209              	.LBE79:
 1210              	.LBE78:
 1211              		.loc 1 336 0
 1212 001c C301     		se_lwz %r0,12(%r1)
 1213 001e 0090     		se_mtlr %r0
 1214              		.cfi_remember_state
 1215              		.cfi_restore 65
 1216              	.LBB84:
 1217              	.LBB80:
 1218              		.loc 1 334 0
 1219 0020 7120E000 		e_lis %r9,bLightOn@ha
 1220              	.LBE80:
 1221              	.LBE84:
 1222              		.loc 1 336 0
 1223              	.LBB85:
 1224              	.LBB81:
 1225              		.loc 1 334 0
 1226 0024 34690000 		e_stb %r3,bLightOn@l(%r9)
 1227              	.LBE81:
 1228              	.LBE85:
 1229              		.loc 1 336 0
 1230 0028 2071     		se_addi %r1,8
 1231              	.LCFI41:
 1232              		.cfi_def_cfa_offset 0
 1233 002a 0004     		se_blr
 1234              	.L77:
 1235              	.LCFI42:
 1236              		.cfi_restore_state
 1237 002c C301     		se_lwz %r0,12(%r1)
 1238 002e 0090     		se_mtlr %r0
 1239              		.cfi_remember_state
 1240              		.cfi_restore 65
 1241              	.LBB86:
 1242              	.LBB82:
 1243              		.loc 1 331 0
 1244 0030 71400001 		e_li %r10,1
 1245 0034 7120E000 		e_lis %r9,bLightOn@ha
 1246              	.LBE82:
 1247              	.LBE86:
 1248              		.loc 1 336 0
 1249              	.LBB87:
 1250              	.LBB83:
 1251              		.loc 1 331 0
 1252 0038 35490000 		e_stb %r10,bLightOn@l(%r9)
 1253              	.LBE83:
 1254              	.LBE87:
GAS LISTING C:\Users\UTILIS~1\AppData\Local\Temp\ccWpXaag.s 			page 23


 1255              		.loc 1 336 0
 1256 003c 2071     		se_addi %r1,8
 1257              	.LCFI43:
 1258              		.cfi_def_cfa_offset 0
 1259 003e 0004     		se_blr
 1260              	.LVL117:
 1261              	.L76:
 1262              	.LCFI44:
 1263              		.cfi_restore_state
 1264 0040 C301     		se_lwz %r0,12(%r1)
 1265              		.loc 1 324 0
 1266 0042 7080E000 		e_lis %r4,.LC23@ha
 1267              	.LVL118:
 1268              		.loc 1 336 0
 1269              		.loc 1 324 0
 1270 0046 1C840000 		e_la %r4,.LC23@l(%r4)
 1271              		.loc 1 336 0
 1272 004a 0090     		se_mtlr %r0
 1273              		.cfi_restore 65
 1274 004c 2071     		se_addi %r1,8
 1275              	.LCFI45:
 1276              		.cfi_def_cfa_offset 0
 1277              		.loc 1 324 0
 1278 004e 78000000 		e_b chprintf
 1279              	.LVL119:
 1280              		.cfi_endproc
 1281              	.LFE56:
 1282              		.size	blink, .-blink
 1283              		.section	.text.mode,"axv",@progbits
 1284              		.align 1
 1285              		.p2align 4,,15
 1286              		.globl mode
 1287              		.type	mode, @function
 1288              	mode:
 1289              	.LFB61:
 1290              		.loc 1 445 0
 1291              		.cfi_startproc
 1292              	.LVL120:
 1293 0000 18210698 		e_stwu %r1,-104(%r1)
 1294              	.LCFI46:
 1295              		.cfi_def_cfa_offset 104
 1296 0004 0080     		se_mflr %r0
 1297 0006 1BA1095C 		e_stmw %r29,92(%r1)
 1298 000a 5401006C 		e_stw %r0,108(%r1)
 1299              		.cfi_offset 65, 4
 1300              		.cfi_offset 29, -12
 1301              		.cfi_offset 30, -8
 1302              		.cfi_offset 31, -4
 1303              		.loc 1 445 0
 1304 000e 013D     		se_mr %r29,%r3
 1305              		.loc 1 448 0
 1306 0010 1824A800 		e_cmpi %cr1,%r4,0
 1307 0014 7A050020 		e_ble %cr1,.L79
 1308              		.loc 1 449 0
 1309 0018 7080E000 		e_lis %r4,.LC24@ha
 1310              	.LVL121:
 1311 001c 1C840000 		e_la %r4,.LC24@l(%r4)
GAS LISTING C:\Users\UTILIS~1\AppData\Local\Temp\ccWpXaag.s 			page 24


 1312 0020 78000001 		e_bl chprintf
 1313              	.LVL122:
 1314              		.loc 1 489 0
 1315 0024 5001006C 		e_lwz %r0,108(%r1)
 1316 0028 0090     		se_mtlr %r0
 1317              		.cfi_remember_state
 1318              		.cfi_restore 65
 1319 002a 1BA1085C 		e_lmw %r29,92(%r1)
 1320              	.LVL123:
 1321 002e 18218068 		e_addi %r1,%r1,104
 1322              	.LCFI47:
 1323              		.cfi_restore 31
 1324              		.cfi_restore 30
 1325              		.cfi_restore 29
 1326              		.cfi_def_cfa_offset 0
 1327 0032 0004     		se_blr
 1328              	.LVL124:
 1329              	.L79:
 1330              	.LCFI48:
 1331              		.cfi_restore_state
 1332              	.LBB90:
 1333              	.LBB91:
 1334              		.loc 1 467 0
 1335 0034 7140E000 		e_lis %r10,.LC25@ha
 1336 0038 1D2A0000 		e_la %r9,.LC25@l(%r10)
 1337 003c 50CA0000 		e_lwz %r6,.LC25@l(%r10)
 1338 0040 50E90004 		e_lwz %r7,4(%r9)
 1339 0044 51090008 		e_lwz %r8,8(%r9)
 1340 0048 5949000C 		e_lhz %r10,12(%r9)
 1341 004c D361     		se_stw %r6,12(%r1)
 1342              		.loc 1 466 0
 1343 004e 712CE172 		e_lis %r9,0x6172
 1344              		.loc 1 467 0
 1345 0052 D471     		se_stw %r7,16(%r1)
 1346              		.loc 1 466 0
 1347 0054 712CC520 		e_or2i %r9,25888
 1348              		.loc 1 467 0
 1349 0058 55010014 		e_stw %r8,20(%r1)
 1350              		.loc 1 466 0
 1351 005c 55210008 		e_stw %r9,8(%r1)
 1352              		.loc 1 467 0
 1353 0060 5D410018 		e_sth %r10,24(%r1)
 1354              		.loc 1 471 0
 1355 0064 7120E000 		e_lis %r9,carMode@ha
 1356 0068 53E90000 		e_lwz %r31,carMode@l(%r9)
 1357 006c 1BE9C4F9 		e_andi %r9,%r31,-7
 1358 0070 1829A801 		e_cmpi %cr1,%r9,1
 1359 0074 7A1600B0 		e_beq %cr1,.L81
 1360 0078 1829A809 		e_cmpi %cr1,%r9,9
 1361 007c 7A1600A8 		e_beq %cr1,.L81
 1362              	.L82:
 1363              		.loc 1 475 0
 1364 0080 1BE9C4F3 		e_andi %r9,%r31,-13
 1365              		.loc 1 476 0
 1366 0084 1BC18008 		e_addi %r30,%r1,8
 1367              		.loc 1 475 0
 1368 0088 192984FE 		e_addi %r9,%r9,-2
GAS LISTING C:\Users\UTILIS~1\AppData\Local\Temp\ccWpXaag.s 			page 25


 1369 008c 18A9A801 		e_cmpli %cr1,%r9,1
 1370 0090 7A15002E 		e_bgt %cr1,.L86
 1371              		.loc 1 476 0
 1372 0094 01E3     		se_mr %r3,%r30
 1373              	.LVL125:
 1374 0096 78000001 		e_bl strlen
 1375              	.LVL126:
 1376 009a 7100E000 		e_lis %r8,.LC27@ha
 1377 009e 7D3E1A14 		add %r9,%r30,%r3
 1378 00a2 1D480000 		e_la %r10,.LC27@l(%r8)
 1379 00a6 50E80000 		e_lwz %r7,.LC27@l(%r8)
 1380 00aa 590A0004 		e_lhz %r8,4(%r10)
 1381 00ae 7CFE192E 		stwx %r7,%r30,%r3
 1382 00b2 314A0006 		e_lbz %r10,6(%r10)
 1383 00b6 5D090004 		e_sth %r8,4(%r9)
 1384 00ba 35490006 		e_stb %r10,6(%r9)
 1385              	.L86:
 1386              		.loc 1 479 0
 1387 00be 1BE9C4F7 		e_andi %r9,%r31,-9
 1388 00c2 192984FC 		e_addi %r9,%r9,-4
 1389 00c6 18A9A803 		e_cmpli %cr1,%r9,3
 1390 00ca 7A15002E 		e_bgt %cr1,.L83
 1391              		.loc 1 480 0
 1392 00ce 01E3     		se_mr %r3,%r30
 1393 00d0 78000001 		e_bl strlen
 1394              	.LVL127:
 1395 00d4 7100E000 		e_lis %r8,.LC28@ha
 1396 00d8 7D3E1A14 		add %r9,%r30,%r3
 1397 00dc 1D480000 		e_la %r10,.LC28@l(%r8)
 1398 00e0 50E80000 		e_lwz %r7,.LC28@l(%r8)
 1399 00e4 510A0004 		e_lwz %r8,4(%r10)
 1400 00e8 7CFE192E 		stwx %r7,%r30,%r3
 1401 00ec 314A0008 		e_lbz %r10,8(%r10)
 1402 00f0 55090004 		e_stw %r8,4(%r9)
 1403 00f4 35490008 		e_stb %r10,8(%r9)
 1404              	.L83:
 1405              		.loc 1 483 0
 1406 00f8 1BFF84F8 		e_addi %r31,%r31,-8
 1407 00fc 18BFA807 		e_cmpli %cr1,%r31,7
 1408 0100 7A050040 		e_ble %cr1,.L90
 1409              	.L84:
 1410              		.loc 1 487 0
 1411 0104 01D3     		se_mr %r3,%r29
 1412 0106 01E5     		se_mr %r5,%r30
 1413 0108 7080E000 		e_lis %r4,.LC30@ha
 1414 010c 1C840000 		e_la %r4,.LC30@l(%r4)
 1415 0110 78000001 		e_bl chprintf
 1416              	.LVL128:
 1417              	.LBE91:
 1418              	.LBE90:
 1419              		.loc 1 489 0
 1420 0114 5001006C 		e_lwz %r0,108(%r1)
 1421 0118 0090     		se_mtlr %r0
 1422              		.cfi_remember_state
 1423              		.cfi_restore 65
 1424 011a 1BA1085C 		e_lmw %r29,92(%r1)
 1425              	.LVL129:
GAS LISTING C:\Users\UTILIS~1\AppData\Local\Temp\ccWpXaag.s 			page 26


 1426 011e 18218068 		e_addi %r1,%r1,104
 1427              	.LCFI49:
 1428              		.cfi_restore 29
 1429              		.cfi_restore 30
 1430              		.cfi_restore 31
 1431              		.cfi_def_cfa_offset 0
 1432 0122 0004     		se_blr
 1433              	.LVL130:
 1434              	.L81:
 1435              	.LCFI50:
 1436              		.cfi_restore_state
 1437              	.LBB93:
 1438              	.LBB92:
 1439              		.loc 1 472 0
 1440 0124 7120E000 		e_lis %r9,.LC26@ha
 1441 0128 51490000 		e_lwz %r10,.LC26@l(%r9)
 1442 012c 1D090000 		e_la %r8,.LC26@l(%r9)
 1443 0130 55410019 		e_stw %r10,25(%r1)
 1444 0134 59280004 		e_lhz %r9,4(%r8)
 1445 0138 5D21001D 		e_sth %r9,29(%r1)
 1446 013c 79FFFF44 		e_b .L82
 1447              	.LVL131:
 1448              	.L90:
 1449              		.loc 1 484 0
 1450 0140 01E3     		se_mr %r3,%r30
 1451 0142 78000001 		e_bl strlen
 1452              	.LVL132:
 1453 0146 7120E000 		e_lis %r9,.LC29@ha
 1454 014a 7D5E1A14 		add %r10,%r30,%r3
 1455 014e 51090000 		e_lwz %r8,.LC29@l(%r9)
 1456 0152 1CE90000 		e_la %r7,.LC29@l(%r9)
 1457 0156 7D1E192E 		stwx %r8,%r30,%r3
 1458 015a 59270004 		e_lhz %r9,4(%r7)
 1459 015e 5D2A0004 		e_sth %r9,4(%r10)
 1460 0162 79FFFFA2 		e_b .L84
 1461              	.LBE92:
 1462              	.LBE93:
 1463              		.cfi_endproc
 1464              	.LFE61:
 1465              		.size	mode, .-mode
 1466              		.section	.text.cmd_at,"axv",@progbits
 1467              		.align 1
 1468              		.p2align 4,,15
 1469              		.type	cmd_at, @function
 1470              	cmd_at:
 1471              	.LFB50:
 1472              		.loc 1 188 0
 1473              		.cfi_startproc
 1474              	.LVL133:
 1475 0000 182106D0 		e_stwu %r1,-48(%r1)
 1476              	.LCFI51:
 1477              		.cfi_def_cfa_offset 48
 1478 0004 0080     		se_mflr %r0
 1479 0006 DBF1     		se_stw %r31,44(%r1)
 1480 0008 DD01     		se_stw %r0,52(%r1)
 1481              		.cfi_offset 65, 4
 1482              		.cfi_offset 31, -4
GAS LISTING C:\Users\UTILIS~1\AppData\Local\Temp\ccWpXaag.s 			page 27


 1483              		.loc 1 188 0
 1484 000a 013F     		se_mr %r31,%r3
 1485 000c 0251     		se_mtar %r9,%r5
 1486              		.loc 1 193 0
 1487 000e 1824A800 		e_cmpi %cr1,%r4,0
 1488 0012 7A160038 		e_beq %cr1,.L94
 1489              		.loc 1 200 0
 1490 0016 50690000 		e_lwz %r3,0(%r9)
 1491              	.LVL134:
 1492 001a 70A003E8 		e_li %r5,1000
 1493              	.LVL135:
 1494 001e 18818008 		e_addi %r4,%r1,8
 1495              	.LVL136:
 1496 0022 78000001 		e_bl get_string
 1497              	.LVL137:
 1498              		.loc 1 201 0
 1499 0026 01F3     		se_mr %r3,%r31
 1500 0028 18818008 		e_addi %r4,%r1,8
 1501 002c 78000001 		e_bl chprintf
 1502              	.LVL138:
 1503              		.loc 1 202 0
 1504 0030 01F3     		se_mr %r3,%r31
 1505 0032 7080E000 		e_lis %r4,.LC33@ha
 1506 0036 1C840000 		e_la %r4,.LC33@l(%r4)
 1507 003a 78000001 		e_bl chprintf
 1508              	.LVL139:
 1509              		.loc 1 203 0
 1510 003e CD01     		se_lwz %r0,52(%r1)
 1511 0040 0090     		se_mtlr %r0
 1512              		.cfi_remember_state
 1513              		.cfi_restore 65
 1514 0042 CBF1     		se_lwz %r31,44(%r1)
 1515              	.LVL140:
 1516 0044 18218030 		e_addi %r1,%r1,48
 1517              	.LCFI52:
 1518              		.cfi_restore 31
 1519              		.cfi_def_cfa_offset 0
 1520 0048 0004     		se_blr
 1521              	.LVL141:
 1522              	.L94:
 1523              	.LCFI53:
 1524              		.cfi_restore_state
 1525              	.LBB96:
 1526              	.LBB97:
 1527              		.loc 1 194 0
 1528 004a 7080E000 		e_lis %r4,.LC31@ha
 1529              	.LVL142:
 1530 004e 1C840000 		e_la %r4,.LC31@l(%r4)
 1531 0052 78000001 		e_bl chprintf
 1532              	.LVL143:
 1533              		.loc 1 195 0
 1534 0056 01F3     		se_mr %r3,%r31
 1535 0058 7080E000 		e_lis %r4,.LC32@ha
 1536 005c 1C840000 		e_la %r4,.LC32@l(%r4)
 1537 0060 78000001 		e_bl chprintf
 1538              	.LVL144:
 1539              	.LBE97:
GAS LISTING C:\Users\UTILIS~1\AppData\Local\Temp\ccWpXaag.s 			page 28


 1540              	.LBE96:
 1541              		.loc 1 203 0
 1542 0064 CD01     		se_lwz %r0,52(%r1)
 1543 0066 0090     		se_mtlr %r0
 1544              		.cfi_restore 65
 1545 0068 CBF1     		se_lwz %r31,44(%r1)
 1546              	.LVL145:
 1547 006a 18218030 		e_addi %r1,%r1,48
 1548              	.LCFI54:
 1549              		.cfi_restore 31
 1550              		.cfi_def_cfa_offset 0
 1551 006e 0004     		se_blr
 1552              		.cfi_endproc
 1553              	.LFE50:
 1554              		.size	cmd_at, .-cmd_at
 1555              		.section	.text.serialprintf.constprop.13,"axv",@progbits
 1556              		.align 1
 1557              		.p2align 4,,15
 1558              		.type	serialprintf.constprop.13, @function
 1559              	serialprintf.constprop.13:
 1560              	.LFB75:
 1561              		.file 3 "./source/serialprintf.h"
 1562              		.loc 3 50 0
 1563              		.cfi_startproc
 1564              	.LVL146:
 1565 0000 182106C8 		e_stwu %r1,-56(%r1)
 1566              	.LCFI55:
 1567              		.cfi_def_cfa_offset 56
 1568 0004 0080     		se_mflr %r0
 1569 0006 D741     		se_stw %r4,28(%r1)
 1570 0008 DF01     		se_stw %r0,60(%r1)
 1571              		.cfi_offset 65, 4
 1572              		.loc 3 50 0
 1573 000a 55210030 		e_stw %r9,48(%r1)
 1574 000e D851     		se_stw %r5,32(%r1)
 1575 0010 D961     		se_stw %r6,36(%r1)
 1576 0012 DA71     		se_stw %r7,40(%r1)
 1577 0014 5501002C 		e_stw %r8,44(%r1)
 1578 0018 55410034 		e_stw %r10,52(%r1)
 1579              		.loc 3 53 0
 1580 001c 71200001 		e_li %r9,1
 1581              		.loc 3 54 0
 1582 0020 18818008 		e_addi %r4,%r1,8
 1583              		.loc 3 53 0
 1584 0024 35210008 		e_stb %r9,8(%r1)
 1585              		.loc 3 54 0
 1586 0028 7060E000 		e_lis %r3,.LC34@ha
 1587              	.LVL147:
 1588              		.loc 3 53 0
 1589 002c 71200000 		e_li %r9,0
 1590              		.loc 3 54 0
 1591 0030 1C630000 		e_la %r3,.LC34@l(%r3)
 1592              		.loc 3 53 0
 1593 0034 35210009 		e_stb %r9,9(%r1)
 1594 0038 19218040 		e_addi %r9,%r1,64
 1595 003c 5521000C 		e_stw %r9,12(%r1)
 1596 0040 19218018 		e_addi %r9,%r1,24
GAS LISTING C:\Users\UTILIS~1\AppData\Local\Temp\ccWpXaag.s 			page 29


 1597 0044 55210010 		e_stw %r9,16(%r1)
 1598              		.loc 3 54 0
 1599 0048 78000001 		e_bl serialvprintf
 1600              	.LVL148:
 1601              		.loc 3 56 0
 1602 004c CF01     		se_lwz %r0,60(%r1)
 1603 004e 0090     		se_mtlr %r0
 1604              		.cfi_restore 65
 1605 0050 18218038 		e_addi %r1,%r1,56
 1606              	.LCFI56:
 1607              		.cfi_def_cfa_offset 0
 1608 0054 0004     		se_blr
 1609              		.cfi_endproc
 1610              	.LFE75:
 1611              		.size	serialprintf.constprop.13, .-serialprintf.constprop.13
 1612              		.section	.text.light,"axv",@progbits
 1613              		.align 1
 1614              		.p2align 4,,15
 1615              		.globl light
 1616              		.type	light, @function
 1617              	light:
 1618              	.LFB59:
 1619              		.loc 1 380 0
 1620              		.cfi_startproc
 1621              	.LVL149:
 1622 0000 182106E8 		e_stwu %r1,-24(%r1)
 1623              	.LCFI57:
 1624              		.cfi_def_cfa_offset 24
 1625 0004 0080     		se_mflr %r0
 1626 0006 1BA1090C 		e_stmw %r29,12(%r1)
 1627 000a D701     		se_stw %r0,28(%r1)
 1628              		.cfi_offset 65, 4
 1629              		.cfi_offset 29, -12
 1630              		.cfi_offset 30, -8
 1631              		.cfi_offset 31, -4
 1632              		.loc 1 380 0
 1633 000c 014F     		se_mr %r31,%r4
 1634 000e 013E     		se_mr %r30,%r3
 1635 0010 015D     		se_mr %r29,%r5
 1636              		.loc 1 382 0
 1637 0012 7060E000 		e_lis %r3,.LC34@ha
 1638              	.LVL150:
 1639 0016 1C630000 		e_la %r3,.LC34@l(%r3)
 1640 001a 78000001 		e_bl serialprintf.constprop.13
 1641              	.LVL151:
 1642              		.loc 1 388 0
 1643 001e 183FA802 		e_cmpi %cr1,%r31,2
 1644 0022 7A16001C 		e_beq %cr1,.L97
 1645              		.loc 1 411 0
 1646 0026 C701     		se_lwz %r0,28(%r1)
 1647              		.loc 1 389 0
 1648 0028 01E3     		se_mr %r3,%r30
 1649 002a 7080E000 		e_lis %r4,.LC35@ha
 1650              		.loc 1 411 0
 1651 002e 1BA1080C 		e_lmw %r29,12(%r1)
 1652              	.LVL152:
 1653              		.loc 1 389 0
GAS LISTING C:\Users\UTILIS~1\AppData\Local\Temp\ccWpXaag.s 			page 30


 1654 0032 1C840000 		e_la %r4,.LC35@l(%r4)
 1655              		.loc 1 411 0
 1656 0036 0090     		se_mtlr %r0
 1657              		.cfi_remember_state
 1658              		.cfi_restore 65
 1659 0038 2171     		se_addi %r1,24
 1660              	.LCFI58:
 1661              		.cfi_restore 31
 1662              		.cfi_restore 30
 1663              		.cfi_restore 29
 1664              		.cfi_def_cfa_offset 0
 1665              	.LBB100:
 1666              	.LBB101:
 1667              		.loc 1 406 0
 1668 003a 78000000 		e_b chprintf
 1669              	.LVL153:
 1670              	.L97:
 1671              	.LCFI59:
 1672              		.cfi_restore_state
 1673              		.loc 1 393 0
 1674 003e C03D     		se_lwz %r3,0(%r29)
 1675 0040 78000001 		e_bl atoi
 1676              	.LVL154:
 1677 0044 013F     		se_mr %r31,%r3
 1678              	.LVL155:
 1679              		.loc 1 394 0
 1680 0046 C13D     		se_lwz %r3,4(%r29)
 1681              	.LVL156:
 1682 0048 78000001 		e_bl atoi
 1683              	.LVL157:
 1684              		.loc 1 396 0
 1685 004c 183FA803 		e_cmpi %cr1,%r31,3
 1686              		.loc 1 394 0
 1687 0050 013D     		se_mr %r29,%r3
 1688              	.LVL158:
 1689              		.loc 1 396 0
 1690 0052 7A160010 		e_beq %cr1,.L98
 1691 0056 192384FE 		e_addi %r9,%r3,-2
 1692 005a 18A9A801 		e_cmpli %cr1,%r9,1
 1693 005e 7A050046 		e_ble %cr1,.L106
 1694              	.L98:
 1695              		.loc 1 402 0
 1696 0062 01F3     		se_mr %r3,%r31
 1697              	.LVL159:
 1698 0064 01D4     		se_mr %r4,%r29
 1699 0066 78000001 		e_bl switchlightcmd
 1700              	.LVL160:
 1701              	.L99:
 1702              		.loc 1 405 0
 1703 006a 183FA804 		e_cmpi %cr1,%r31,4
 1704 006e 7A15000C 		e_bgt %cr1,.L100
 1705 0072 183FA800 		e_cmpi %cr1,%r31,0
 1706 0076 7A06001C 		e_bne %cr1,.L101
 1707              	.L100:
 1708              	.LBE101:
 1709              	.LBE100:
 1710              		.loc 1 411 0
GAS LISTING C:\Users\UTILIS~1\AppData\Local\Temp\ccWpXaag.s 			page 31


 1711 007a C701     		se_lwz %r0,28(%r1)
 1712              	.LBB107:
 1713              	.LBB102:
 1714              		.loc 1 406 0
 1715 007c 01E3     		se_mr %r3,%r30
 1716 007e 7080E000 		e_lis %r4,.LC37@ha
 1717              	.LBE102:
 1718              	.LBE107:
 1719              		.loc 1 411 0
 1720 0082 1BA1080C 		e_lmw %r29,12(%r1)
 1721              	.LVL161:
 1722              	.LBB108:
 1723              	.LBB103:
 1724              		.loc 1 406 0
 1725 0086 1C840000 		e_la %r4,.LC37@l(%r4)
 1726              	.LBE103:
 1727              	.LBE108:
 1728              		.loc 1 411 0
 1729 008a 0090     		se_mtlr %r0
 1730              		.cfi_remember_state
 1731              		.cfi_restore 65
 1732 008c 2171     		se_addi %r1,24
 1733              	.LCFI60:
 1734              		.cfi_restore 29
 1735              		.cfi_restore 30
 1736              		.cfi_restore 31
 1737              		.cfi_def_cfa_offset 0
 1738              	.LBB109:
 1739              	.LBB104:
 1740              		.loc 1 406 0
 1741 008e 78000000 		e_b chprintf
 1742              	.LVL162:
 1743              	.L101:
 1744              	.LCFI61:
 1745              		.cfi_restore_state
 1746              	.LBE104:
 1747              	.LBE109:
 1748              		.loc 1 411 0
 1749 0092 C701     		se_lwz %r0,28(%r1)
 1750              	.LBB110:
 1751              	.LBB105:
 1752              		.loc 1 409 0
 1753 0094 01F3     		se_mr %r3,%r31
 1754 0096 01D4     		se_mr %r4,%r29
 1755              	.LBE105:
 1756              	.LBE110:
 1757              		.loc 1 411 0
 1758 0098 0090     		se_mtlr %r0
 1759              		.cfi_remember_state
 1760              		.cfi_restore 65
 1761 009a 1BA1080C 		e_lmw %r29,12(%r1)
 1762              	.LVL163:
 1763 009e 2171     		se_addi %r1,24
 1764              	.LCFI62:
 1765              		.cfi_restore 31
 1766              		.cfi_restore 30
 1767              		.cfi_restore 29
GAS LISTING C:\Users\UTILIS~1\AppData\Local\Temp\ccWpXaag.s 			page 32


 1768              		.cfi_def_cfa_offset 0
 1769              	.LBB111:
 1770              	.LBB106:
 1771              		.loc 1 409 0
 1772 00a0 78000000 		e_b switchlightcmd
 1773              	.LVL164:
 1774              	.L106:
 1775              	.LCFI63:
 1776              		.cfi_restore_state
 1777              		.loc 1 398 0
 1778 00a4 01E3     		se_mr %r3,%r30
 1779              	.LVL165:
 1780 00a6 7080E000 		e_lis %r4,.LC36@ha
 1781 00aa 1C840000 		e_la %r4,.LC36@l(%r4)
 1782 00ae 78000001 		e_bl chprintf
 1783              	.LVL166:
 1784 00b2 79FFFFB8 		e_b .L99
 1785              	.LBE106:
 1786              	.LBE111:
 1787              		.cfi_endproc
 1788              	.LFE59:
 1789              		.size	light, .-light
 1790              		.section	.text.ThreadCarBlinker,"axv",@progbits
 1791              		.align 1
 1792              		.p2align 4,,15
 1793              		.globl ThreadCarBlinker
 1794              		.type	ThreadCarBlinker, @function
 1795              	ThreadCarBlinker:
 1796              	.LFB46:
 1797              		.loc 1 35 0
 1798              		.cfi_startproc
 1799              	.LVL167:
 1800 0000 182106E8 		e_stwu %r1,-24(%r1)
 1801              	.LCFI64:
 1802              		.cfi_def_cfa_offset 24
 1803              		.loc 1 37 0
 1804 0004 7120E000 		e_lis %r9,rlist+24@ha
 1805              		.loc 1 35 0
 1806 0008 1BA1090C 		e_stmw %r29,12(%r1)
 1807              		.loc 1 37 0
 1808 000c 51490000 		e_lwz %r10,rlist+24@l(%r9)
 1809              		.loc 1 35 0
 1810 0010 0080     		se_mflr %r0
 1811              		.cfi_offset 29, -12
 1812              		.cfi_offset 30, -8
 1813              		.cfi_offset 31, -4
 1814              		.cfi_register 65, 0
 1815              		.loc 1 39 0
 1816 0012 73C0E000 		e_lis %r30,.LANCHOR3@ha
 1817              		.loc 1 35 0
 1818 0016 D701     		se_stw %r0,28(%r1)
 1819              		.cfi_offset 65, 4
 1820              		.loc 1 37 0
 1821 0018 7120E000 		e_lis %r9,.LC38@ha
 1822 001c 1D290000 		e_la %r9,.LC38@l(%r9)
 1823 0020 552A0018 		e_stw %r9,24(%r10)
 1824              		.loc 1 39 0
GAS LISTING C:\Users\UTILIS~1\AppData\Local\Temp\ccWpXaag.s 			page 33


 1825 0024 513E0000 		e_lwz %r9,.LANCHOR3@l(%r30)
 1826 0028 1829A800 		e_cmpi %cr1,%r9,0
 1827 002c 7A16005E 		e_beq %cr1,.L113
 1828 0030 1FDE0000 		e_la %r30,.LANCHOR3@l(%r30)
 1829              		.loc 1 47 0
 1830 0034 73F8E3F9 		e_lis %r31,0xc3f9
 1831 0038 480D     		se_li %r29,0
 1832 003a 78000028 		e_b .L112
 1833              	.LVL168:
 1834              	.L109:
 1835              		.loc 1 43 0
 1836 003e 1829A802 		e_cmpi %cr1,%r9,2
 1837 0042 7A16006C 		e_beq %cr1,.L116
 1838              		.loc 1 47 0
 1839 0046 37BF0602 		e_stb %r29,1538(%r31)
 1840              		.loc 1 48 0
 1841 004a 37BF0601 		e_stb %r29,1537(%r31)
 1842              	.L110:
 1843              		.loc 1 51 0
 1844 004e 706001F4 		e_li %r3,500
 1845 0052 78000001 		e_bl chThdSleep
 1846              	.LVL169:
 1847              		.loc 1 39 0
 1848 0056 513E0000 		e_lwz %r9,0(%r30)
 1849 005a 1829A800 		e_cmpi %cr1,%r9,0
 1850 005e 7A16002C 		e_beq %cr1,.L113
 1851              	.L112:
 1852              		.loc 1 40 0
 1853 0062 1829A801 		e_cmpi %cr1,%r9,1
 1854 0066 7A06FFD8 		e_bne %cr1,.L109
 1855              		.loc 1 41 0
 1856 006a 313F0602 		e_lbz %r9,1538(%r31)
 1857              		.loc 1 51 0
 1858 006e 706001F4 		e_li %r3,500
 1859              		.loc 1 41 0
 1860 0072 7D2948F8 		nor %r9,%r9,%r9
 1861 0076 353F0602 		e_stb %r9,1538(%r31)
 1862              		.loc 1 51 0
 1863 007a 78000001 		e_bl chThdSleep
 1864              	.LVL170:
 1865              		.loc 1 39 0
 1866 007e 513E0000 		e_lwz %r9,0(%r30)
 1867 0082 1829A800 		e_cmpi %cr1,%r9,0
 1868 0086 7A06FFDC 		e_bne %cr1,.L112
 1869              	.L113:
 1870              		.loc 1 54 0
 1871 008a 7138E3F9 		e_lis %r9,0xc3f9
 1872 008e 71400000 		e_li %r10,0
 1873              		.loc 1 57 0
 1874 0092 4803     		se_li %r3,0
 1875              		.loc 1 54 0
 1876 0094 35490602 		e_stb %r10,1538(%r9)
 1877              		.loc 1 55 0
 1878 0098 35490601 		e_stb %r10,1537(%r9)
 1879              		.loc 1 57 0
 1880 009c 78000001 		e_bl chThdExit
 1881              	.LVL171:
GAS LISTING C:\Users\UTILIS~1\AppData\Local\Temp\ccWpXaag.s 			page 34


 1882              		.loc 1 60 0
 1883 00a0 C701     		se_lwz %r0,28(%r1)
 1884 00a2 0090     		se_mtlr %r0
 1885              		.cfi_remember_state
 1886              		.cfi_restore 65
 1887 00a4 1BA1080C 		e_lmw %r29,12(%r1)
 1888 00a8 4803     		se_li %r3,0
 1889 00aa 2171     		se_addi %r1,24
 1890              	.LCFI65:
 1891              		.cfi_restore 31
 1892              		.cfi_restore 30
 1893              		.cfi_restore 29
 1894              		.cfi_def_cfa_offset 0
 1895 00ac 0004     		se_blr
 1896              	.L116:
 1897              	.LCFI66:
 1898              		.cfi_restore_state
 1899              		.loc 1 44 0
 1900 00ae 313F0601 		e_lbz %r9,1537(%r31)
 1901 00b2 7D2948F8 		nor %r9,%r9,%r9
 1902 00b6 353F0601 		e_stb %r9,1537(%r31)
 1903 00ba 79FFFF94 		e_b .L110
 1904              		.cfi_endproc
 1905              	.LFE46:
 1906              		.size	ThreadCarBlinker, .-ThreadCarBlinker
 1907              		.globl shell_commands
 1908              		.globl waThreadFullDemo
 1909              		.globl waThreadCarBlinker
 1910              		.globl bFullDemoRunning
 1911              		.globl iCarBlinker
 1912              		.section	.bss.waThreadFullDemo,"aw",@nobits
 1913              		.align 3
 1914              		.set	.LANCHOR2,. + 0
 1915              		.type	waThreadFullDemo, @object
 1916              		.size	waThreadFullDemo, 616
 1917              	waThreadFullDemo:
 1918 0000 00000000 		.zero	616
 1918      00000000 
 1918      00000000 
 1918      00000000 
 1918      00000000 
 1919              		.section	.rodata.states.9392,"a",@progbits
 1920              		.align 2
 1921              		.set	.LANCHOR1,. + 0
 1922              		.type	states.9392, @object
 1923              		.size	states.9392, 60
 1924              	states.9392:
 1925 0000 00000000 		.long	.LC39
 1926 0004 00000000 		.long	.LC40
 1927 0008 00000000 		.long	.LC41
 1928 000c 00000000 		.long	.LC42
 1929 0010 00000000 		.long	.LC43
 1930 0014 00000000 		.long	.LC44
 1931 0018 00000000 		.long	.LC45
 1932 001c 00000000 		.long	.LC46
 1933 0020 00000000 		.long	.LC47
 1934 0024 00000000 		.long	.LC48
GAS LISTING C:\Users\UTILIS~1\AppData\Local\Temp\ccWpXaag.s 			page 35


 1935 0028 00000000 		.long	.LC49
 1936 002c 00000000 		.long	.LC50
 1937 0030 00000000 		.long	.LC51
 1938 0034 00000000 		.long	.LC52
 1939 0038 00000000 		.long	.LC53
 1940              		.section	.bss.iCarBlinker,"aw",@nobits
 1941              		.align 2
 1942              		.set	.LANCHOR3,. + 0
 1943              		.type	iCarBlinker, @object
 1944              		.size	iCarBlinker, 4
 1945              	iCarBlinker:
 1946 0000 00000000 		.zero	4
 1947              		.section	.bss.bFullDemoRunning,"aw",@nobits
 1948              		.set	.LANCHOR0,. + 0
 1949              		.type	bFullDemoRunning, @object
 1950              		.size	bFullDemoRunning, 1
 1951              	bFullDemoRunning:
 1952 0000 00       		.zero	1
 1953              		.section	.rodata.str1.4,"aMS",@progbits,1
 1954              		.align 2
 1955              	.LC0:
 1956 0000 54687265 		.string	"ThreadFullDemo"
 1956      61644675 
 1956      6C6C4465 
 1956      6D6F00
 1957 000f 00       		.zero	1
 1958              	.LC1:
 1959 0010 55736167 		.string	"Usage: stopdemo\r\n"
 1959      653A2073 
 1959      746F7064 
 1959      656D6F0D 
 1959      0A00
 1960 0022 0000     		.zero	2
 1961              	.LC2:
 1962 0024 55736167 		.string	"Usage: mem\r\n"
 1962      653A206D 
 1962      656D0D0A 
 1962      00
 1963 0031 000000   		.zero	3
 1964              	.LC3:
 1965 0034 636F7265 		.string	"core free memory : %u bytes\r\n"
 1965      20667265 
 1965      65206D65 
 1965      6D6F7279 
 1965      203A2025 
 1966 0052 0000     		.zero	2
 1967              	.LC4:
 1968 0054 68656170 		.string	"heap fragments   : %u\r\n"
 1968      20667261 
 1968      676D656E 
 1968      74732020 
 1968      203A2025 
 1969              	.LC5:
 1970 006c 68656170 		.string	"heap free total  : %u bytes\r\n"
 1970      20667265 
 1970      6520746F 
 1970      74616C20 
GAS LISTING C:\Users\UTILIS~1\AppData\Local\Temp\ccWpXaag.s 			page 36


 1970      203A2025 
 1971 008a 0000     		.zero	2
 1972              	.LC6:
 1973 008c 55736167 		.string	"Usage: stopgps\r\n"
 1973      653A2073 
 1973      746F7067 
 1973      70730D0A 
 1973      00
 1974 009d 000000   		.zero	3
 1975              	.LC7:
 1976 00a0 54687265 		.string	"ThreadGPS terminated\r\n"
 1976      61644750 
 1976      53207465 
 1976      726D696E 
 1976      61746564 
 1977 00b7 00       		.zero	1
 1978              	.LC8:
 1979 00b8 54687265 		.string	"ThreadGPS not running\r\n"
 1979      61644750 
 1979      53206E6F 
 1979      74207275 
 1979      6E6E696E 
 1980              	.LC9:
 1981 00d0 55736167 		.string	"Usage: speed\r\n"
 1981      653A2073 
 1981      70656564 
 1981      0D0A00
 1982 00df 00       		.zero	1
 1983              	.LC10:
 1984 00e0 25640D0A 		.string	"%d\r\n"
 1984      00
 1985 00e5 000000   		.zero	3
 1986              	.LC11:
 1987 00e8 55736167 		.string	"Usage: rpm\r\n"
 1987      653A2072 
 1987      706D0D0A 
 1987      00
 1988 00f5 000000   		.zero	3
 1989              	.LC12:
 1990 00f8 55736167 		.string	"Usage: threads\r\n"
 1990      653A2074 
 1990      68726561 
 1990      64730D0A 
 1990      00
 1991 0109 000000   		.zero	3
 1992              	.LC13:
 1993 010c 20202020 		.string	"    addr    stack prio refs     state time\r\n"
 1993      61646472 
 1993      20202020 
 1993      73746163 
 1993      6B207072 
 1994 0139 000000   		.zero	3
 1995              	.LC14:
 1996 013c 252E386C 		.string	"%.8lx %.8lx %4lu %4lu %9s %lu\r\n"
 1996      7820252E 
 1996      386C7820 
 1996      25346C75 
GAS LISTING C:\Users\UTILIS~1\AppData\Local\Temp\ccWpXaag.s 			page 37


 1996      2025346C 
 1997              	.LC15:
 1998 015c 55736167 		.string	"Usage: startgps\r\n"
 1998      653A2073 
 1998      74617274 
 1998      6770730D 
 1998      0A00
 1999 016e 0000     		.zero	2
 2000              	.LC16:
 2001 0170 54687265 		.string	"ThreadGPS started\r\n"
 2001      61644750 
 2001      53207374 
 2001      61727465 
 2001      640D0A00 
 2002              	.LC17:
 2003 0184 54687265 		.string	"ThreadGPS already started\r\n"
 2003      61644750 
 2003      5320616C 
 2003      72656164 
 2003      79207374 
 2004              	.LC18:
 2005 01a0 55736167 		.string	"Usage: startdemo\r\n"
 2005      653A2073 
 2005      74617274 
 2005      64656D6F 
 2005      0D0A00
 2006 01b3 00       		.zero	1
 2007              	.LC19:
 2008 01b4 46756C6C 		.string	"Full Demo Already running\r\n"
 2008      2044656D 
 2008      6F20416C 
 2008      72656164 
 2008      79207275 
 2009              	.LC20:
 2010 01d0 55736167 		.string	"Usage: drive <DIRECTION (0/1/2)> <SPEED (0-10000)>\r\n"
 2010      653A2064 
 2010      72697665 
 2010      203C4449 
 2010      52454354 
 2011 0205 000000   		.zero	3
 2012              	.LC21:
 2013 0208 506C6561 		.string	"Please between 0 and 10000\r\n"
 2013      73652062 
 2013      65747765 
 2013      656E2030 
 2013      20616E64 
 2014 0225 000000   		.zero	3
 2015              	.LC22:
 2016 0228 55736167 		.string	"Usage: turn <DIRECTION (0/1/2)>\r\n"
 2016      653A2074 
 2016      75726E20 
 2016      3C444952 
 2016      45435449 
 2017 024a 0000     		.zero	2
 2018              	.LC23:
 2019 024c 55736167 		.string	"Usage: blink <0/1>\r\n"
 2019      653A2062 
GAS LISTING C:\Users\UTILIS~1\AppData\Local\Temp\ccWpXaag.s 			page 38


 2019      6C696E6B 
 2019      203C302F 
 2019      313E0D0A 
 2020 0261 000000   		.zero	3
 2021              	.LC24:
 2022 0264 55736167 		.string	"Usage: mode\r\n"
 2022      653A206D 
 2022      6F64650D 
 2022      0A00
 2023 0272 0000     		.zero	2
 2024              	.LC25:
 2025 0274 636F6E63 		.string	"concatenated."
 2025      6174656E 
 2025      61746564 
 2025      2E00
 2026 0282 0000     		.zero	2
 2027              	.LC26:
 2028 0284 4E756974 		.string	"Nuit "
 2028      2000
 2029 028a 0000     		.zero	2
 2030              	.LC27:
 2031 028c 506C7569 		.string	"Pluie "
 2031      652000
 2032 0293 00       		.zero	1
 2033              	.LC28:
 2034 0294 55726765 		.string	"Urgence "
 2034      6E636520 
 2034      00
 2035 029d 000000   		.zero	3
 2036              	.LC29:
 2037 02a0 53656E73 		.string	"Sens "
 2037      2000
 2038 02a6 0000     		.zero	2
 2039              	.LC30:
 2040 02a8 25730D0A 		.string	"%s\r\n"
 2040      00
 2041 02ad 000000   		.zero	3
 2042              	.LC31:
 2043 02b0 55736167 		.string	"Usage: send <ATCOMMAND>\r\n"
 2043      653A2073 
 2043      656E6420 
 2043      3C415443 
 2043      4F4D4D41 
 2044 02ca 0000     		.zero	2
 2045              	.LC32:
 2046 02cc 5741524E 		.string	"WARNING : BT device should not be connected on any terminal\r\n"
 2046      494E4720 
 2046      3A204254 
 2046      20646576 
 2046      69636520 
 2047 030a 0000     		.zero	2
 2048              	.LC33:
 2049 030c 0D0A00   		.string	"\r\n"
 2050 030f 00       		.zero	1
 2051              	.LC34:
 2052 0310 256400   		.string	"%d"
 2053 0313 00       		.zero	1
GAS LISTING C:\Users\UTILIS~1\AppData\Local\Temp\ccWpXaag.s 			page 39


 2054              	.LC35:
 2055 0314 55736167 		.string	"Usage: light <LIGHT (1/2/3/4)> <ON_OFF (0/1/2/3)>\r\n"
 2055      653A206C 
 2055      69676874 
 2055      203C4C49 
 2055      47485420 
 2056              	.LC36:
 2057 0348 506C6561 		.string	"Please between 0 and 1 in this case\r\n"
 2057      73652062 
 2057      65747765 
 2057      656E2030 
 2057      20616E64 
 2058 036e 0000     		.zero	2
 2059              	.LC37:
 2060 0370 506C6561 		.string	"Please between 1 and 4\r\n"
 2060      73652062 
 2060      65747765 
 2060      656E2031 
 2060      20616E64 
 2061 0389 000000   		.zero	3
 2062              	.LC38:
 2063 038c 54687265 		.string	"ThreadCarBlinker"
 2063      61644361 
 2063      72426C69 
 2063      6E6B6572 
 2063      00
 2064 039d 000000   		.zero	3
 2065              	.LC39:
 2066 03a0 52454144 		.string	"READY"
 2066      5900
 2067 03a6 0000     		.zero	2
 2068              	.LC40:
 2069 03a8 43555252 		.string	"CURRENT"
 2069      454E5400 
 2070              	.LC41:
 2071 03b0 53555350 		.string	"SUSPENDED"
 2071      454E4445 
 2071      4400
 2072 03ba 0000     		.zero	2
 2073              	.LC42:
 2074 03bc 57545345 		.string	"WTSEM"
 2074      4D00
 2075 03c2 0000     		.zero	2
 2076              	.LC43:
 2077 03c4 57544D54 		.string	"WTMTX"
 2077      5800
 2078 03ca 0000     		.zero	2
 2079              	.LC44:
 2080 03cc 5754434F 		.string	"WTCOND"
 2080      4E4400
 2081 03d3 00       		.zero	1
 2082              	.LC45:
 2083 03d4 534C4545 		.string	"SLEEPING"
 2083      50494E47 
 2083      00
 2084 03dd 000000   		.zero	3
 2085              	.LC46:
GAS LISTING C:\Users\UTILIS~1\AppData\Local\Temp\ccWpXaag.s 			page 40


 2086 03e0 57544558 		.string	"WTEXIT"
 2086      495400
 2087 03e7 00       		.zero	1
 2088              	.LC47:
 2089 03e8 57544F52 		.string	"WTOREVT"
 2089      45565400 
 2090              	.LC48:
 2091 03f0 5754414E 		.string	"WTANDEVT"
 2091      44455654 
 2091      00
 2092 03f9 000000   		.zero	3
 2093              	.LC49:
 2094 03fc 534E444D 		.string	"SNDMSGQ"
 2094      53475100 
 2095              	.LC50:
 2096 0404 534E444D 		.string	"SNDMSG"
 2096      534700
 2097 040b 00       		.zero	1
 2098              	.LC51:
 2099 040c 57544D53 		.string	"WTMSG"
 2099      4700
 2100 0412 0000     		.zero	2
 2101              	.LC52:
 2102 0414 57545155 		.string	"WTQUEUE"
 2102      45554500 
 2103              	.LC53:
 2104 041c 46494E41 		.string	"FINAL"
 2104      4C00
 2105 0422 0000     		.zero	2
 2106              	.LC54:
 2107 0424 6D656D00 		.string	"mem"
 2108              	.LC55:
 2109 0428 74687265 		.string	"threads"
 2109      61647300 
 2110              	.LC56:
 2111 0430 73656E64 		.string	"send"
 2111      00
 2112 0435 000000   		.zero	3
 2113              	.LC57:
 2114 0438 73746172 		.string	"startgps"
 2114      74677073 
 2114      00
 2115 0441 000000   		.zero	3
 2116              	.LC58:
 2117 0444 73746F70 		.string	"stopgps"
 2117      67707300 
 2118              	.LC59:
 2119 044c 73706565 		.string	"speed"
 2119      6400
 2120 0452 0000     		.zero	2
 2121              	.LC60:
 2122 0454 64726976 		.string	"drive"
 2122      6500
 2123 045a 0000     		.zero	2
 2124              	.LC61:
 2125 045c 7475726E 		.string	"turn"
 2125      00
GAS LISTING C:\Users\UTILIS~1\AppData\Local\Temp\ccWpXaag.s 			page 41


 2126 0461 000000   		.zero	3
 2127              	.LC62:
 2128 0464 626C696E 		.string	"blink"
 2128      6B00
 2129 046a 0000     		.zero	2
 2130              	.LC63:
 2131 046c 73746172 		.string	"startdemo"
 2131      7464656D 
 2131      6F00
 2132 0476 0000     		.zero	2
 2133              	.LC64:
 2134 0478 73746F70 		.string	"stopdemo"
 2134      64656D6F 
 2134      00
 2135 0481 000000   		.zero	3
 2136              	.LC65:
 2137 0484 6C696768 		.string	"light"
 2137      7400
 2138 048a 0000     		.zero	2
 2139              	.LC66:
 2140 048c 72706D00 		.string	"rpm"
 2141              	.LC67:
 2142 0490 6D6F6465 		.string	"mode"
 2142      00
 2143              		.section	.rodata.shell_commands,"a",@progbits
 2144              		.align 2
 2145              		.type	shell_commands, @object
 2146              		.size	shell_commands, 120
 2147              	shell_commands:
 2148 0000 00000000 		.long	.LC54
 2149 0004 00000000 		.long	cmd_mem
 2150 0008 00000000 		.long	.LC55
 2151 000c 00000000 		.long	cmd_threads
 2152 0010 00000000 		.long	.LC56
 2153 0014 00000000 		.long	cmd_at
 2154 0018 00000000 		.long	.LC57
 2155 001c 00000000 		.long	startgps
 2156 0020 00000000 		.long	.LC58
 2157 0024 00000000 		.long	stopgps
 2158 0028 00000000 		.long	.LC59
 2159 002c 00000000 		.long	speed
 2160 0030 00000000 		.long	.LC60
 2161 0034 00000000 		.long	drive
 2162 0038 00000000 		.long	.LC61
 2163 003c 00000000 		.long	turn
 2164 0040 00000000 		.long	.LC62
 2165 0044 00000000 		.long	blink
 2166 0048 00000000 		.long	.LC63
 2167 004c 00000000 		.long	startdemo
 2168 0050 00000000 		.long	.LC64
 2169 0054 00000000 		.long	stopdemo
 2170 0058 00000000 		.long	.LC65
 2171 005c 00000000 		.long	light
 2172 0060 00000000 		.long	.LC66
 2173 0064 00000000 		.long	rpm
 2174 0068 00000000 		.long	.LC67
 2175 006c 00000000 		.long	mode
GAS LISTING C:\Users\UTILIS~1\AppData\Local\Temp\ccWpXaag.s 			page 42


 2176 0070 00000000 		.long	0
 2177 0074 00000000 		.long	0
 2178              		.section	.bss.waThreadCarBlinker,"aw",@nobits
 2179              		.align 3
 2180              		.type	waThreadCarBlinker, @object
 2181              		.size	waThreadCarBlinker, 616
 2182              	waThreadCarBlinker:
 2183 0000 00000000 		.zero	616
 2183      00000000 
 2183      00000000 
 2183      00000000 
 2183      00000000 
 2184              		.section	".text","axv"
 2185              	.Letext0:
 2186              		.file 4 "c:\\spc5studio\\eclipse\\plugins\\com.st.tools.spc5.tools.gnu.gcc.ppcvle.win32_1.0.0.2016
 2187              		.file 5 "c:\\spc5studio\\eclipse\\plugins\\com.st.tools.spc5.tools.gnu.gcc.ppcvle.win32_1.0.0.2016
 2188              		.file 6 "c:\\spc5studio\\eclipse\\plugins\\com.st.tools.spc5.tools.gnu.gcc.ppcvle.win32_1.0.0.2016
 2189              		.file 7 "./components/chibios_rt_spc560dxx_kernel_port_component/lib/include/chtypes.h"
 2190              		.file 8 "./components/chibios_rt_portable_kernel_component/lib/include/chlists.h"
 2191              		.file 9 "./components/chibios_rt_portable_kernel_component/lib/include/chthreads.h"
 2192              		.file 10 "./components/chibios_rt_spc560dxx_kernel_port_component/lib/include/chcore.h"
 2193              		.file 11 "./components/chibios_rt_portable_kernel_component/lib/include/chvt.h"
 2194              		.file 12 "./components/chibios_rt_portable_kernel_component/lib/include/chschd.h"
 2195              		.file 13 "./components/chibios_rt_portable_kernel_component/lib/include/chmtx.h"
 2196              		.file 14 "./components/chibios_rt_portable_kernel_component/lib/include/chevents.h"
 2197              		.file 15 "./components/chibios_rt_portable_kernel_component/lib/include/chmemcore.h"
 2198              		.file 16 "./components/chibios_rt_portable_kernel_component/lib/include/chheap.h"
 2199              		.file 17 "./components/chibios_rt_portable_kernel_component/lib/include/chqueues.h"
 2200              		.file 18 "./components/chibios_rt_portable_kernel_component/lib/include/chstreams.h"
 2201              		.file 19 "./components/chibios_rt_spc5xx_osal_component/lib/include/osal.h"
 2202              		.file 20 "./components/spc560dxx_hal_drivers_component/lib/include/xpc560d.h"
 2203              		.file 21 "./components/portable_spc5_hal_component/lib/include/hal_queues.h"
 2204              		.file 22 "./components/portable_spc5_hal_component/lib/include/serial.h"
 2205              		.file 23 "./components/spc560dxx_hal_drivers_component/lib/include/spc5_linflex.h"
 2206              		.file 24 "./components/chibios_rt_portable_mini_shell_component/lib/include/shell.h"
 2207              		.file 25 "c:\\spc5studio\\eclipse\\plugins\\com.st.tools.spc5.tools.gnu.gcc.ppcvle.win32_1.0.0.201
 2208              		.file 26 "<built-in>"
 2209              		.file 27 "./source/shellcmd.h"
 2210              		.file 28 "./source/shellbt.h"
 2211              		.file 29 "./source/speedsensor.h"
 2212              		.file 30 "./source/carcommand.h"
 2213              		.file 31 "./components/chibios_rt_portable_kernel_component/lib/include/chregistry.h"
 2214              		.file 32 "c:\\spc5studio\\eclipse\\plugins\\com.st.tools.spc5.tools.gnu.gcc.ppcvle.win32_1.0.0.201
 2215              		.file 33 "./source/serial_input.h"
 2216              		.file 34 "./components/spc560dxx_hal_drivers_component/lib/include/serial_lld.h"